
stest:     file format elf32-i386


Disassembly of section .text:

00100000 <_start>:
  100000:	eb 0e                	jmp    100010 <multiboot_entry>
  100002:	66 90                	xchg   %ax,%ax

00100004 <multiboot_header>:
  100004:	02 b0 ad 1b 03 00    	add    0x31bad(%eax),%dh
  10000a:	00 00                	add    %al,(%eax)
  10000c:	fb                   	sti    
  10000d:	4f                   	dec    %edi
  10000e:	52                   	push   %edx
  10000f:	e4 bc                	in     $0xbc,%al

00100010 <multiboot_entry>:
  100010:	bc 00 53 11 00       	mov    $0x115300,%esp
  100015:	6a 00                	push   $0x0
  100017:	9d                   	popf   
  100018:	53                   	push   %ebx
  100019:	50                   	push   %eax
  10001a:	e8 10 00 00 00       	call   10002f <kern_init>

0010001f <loop>:
  10001f:	f4                   	hlt    
  100020:	eb fd                	jmp    10001f <loop>

00100022 <multiboot_init>:
  100022:	55                   	push   %ebp
  100023:	89 e5                	mov    %esp,%ebp
  100025:	8b 45 08             	mov    0x8(%ebp),%eax
  100028:	a3 00 f0 10 00       	mov    %eax,0x10f000
  10002d:	5d                   	pop    %ebp
  10002e:	c3                   	ret    

0010002f <kern_init>:
  10002f:	55                   	push   %ebp
  100030:	89 e5                	mov    %esp,%ebp
  100032:	83 ec 18             	sub    $0x18,%esp
  100035:	ba 20 fd 10 00       	mov    $0x10fd20,%edx
  10003a:	b8 16 ea 10 00       	mov    $0x10ea16,%eax
  10003f:	29 c2                	sub    %eax,%edx
  100041:	89 d0                	mov    %edx,%eax
  100043:	83 ec 04             	sub    $0x4,%esp
  100046:	50                   	push   %eax
  100047:	6a 00                	push   $0x0
  100049:	68 16 ea 10 00       	push   $0x10ea16
  10004e:	e8 63 31 00 00       	call   1031b6 <memset>
  100053:	83 c4 10             	add    $0x10,%esp
  100056:	e8 93 14 00 00       	call   1014ee <cons_init>
  10005b:	c7 45 f4 20 33 10 00 	movl   $0x103320,-0xc(%ebp)
  100062:	83 ec 08             	sub    $0x8,%esp
  100065:	ff 75 f4             	pushl  -0xc(%ebp)
  100068:	68 3c 33 10 00       	push   $0x10333c
  10006d:	e8 ae 02 00 00       	call   100320 <cprintf>
  100072:	83 c4 10             	add    $0x10,%esp
  100075:	e8 b2 07 00 00       	call   10082c <print_kerninfo>
  10007a:	e8 71 00 00 00       	call   1000f0 <grade_backtrace>
  10007f:	e8 32 28 00 00       	call   1028b6 <pmm_init>
  100084:	e8 a9 15 00 00       	call   101632 <pic_init>
  100089:	e8 ea 16 00 00       	call   101778 <idt_init>
  10008e:	e8 aa 0c 00 00       	call   100d3d <clock_init>
  100093:	e8 10 15 00 00       	call   1015a8 <intr_enable>
  100098:	eb fe                	jmp    100098 <kern_init+0x69>

0010009a <grade_backtrace2>:
  10009a:	55                   	push   %ebp
  10009b:	89 e5                	mov    %esp,%ebp
  10009d:	83 ec 08             	sub    $0x8,%esp
  1000a0:	83 ec 04             	sub    $0x4,%esp
  1000a3:	6a 00                	push   $0x0
  1000a5:	6a 00                	push   $0x0
  1000a7:	6a 00                	push   $0x0
  1000a9:	e8 c0 0b 00 00       	call   100c6e <mon_backtrace>
  1000ae:	83 c4 10             	add    $0x10,%esp
  1000b1:	c9                   	leave  
  1000b2:	c3                   	ret    

001000b3 <grade_backtrace1>:
  1000b3:	55                   	push   %ebp
  1000b4:	89 e5                	mov    %esp,%ebp
  1000b6:	53                   	push   %ebx
  1000b7:	83 ec 04             	sub    $0x4,%esp
  1000ba:	8d 4d 0c             	lea    0xc(%ebp),%ecx
  1000bd:	8b 55 0c             	mov    0xc(%ebp),%edx
  1000c0:	8d 5d 08             	lea    0x8(%ebp),%ebx
  1000c3:	8b 45 08             	mov    0x8(%ebp),%eax
  1000c6:	51                   	push   %ecx
  1000c7:	52                   	push   %edx
  1000c8:	53                   	push   %ebx
  1000c9:	50                   	push   %eax
  1000ca:	e8 cb ff ff ff       	call   10009a <grade_backtrace2>
  1000cf:	83 c4 10             	add    $0x10,%esp
  1000d2:	8b 5d fc             	mov    -0x4(%ebp),%ebx
  1000d5:	c9                   	leave  
  1000d6:	c3                   	ret    

001000d7 <grade_backtrace0>:
  1000d7:	55                   	push   %ebp
  1000d8:	89 e5                	mov    %esp,%ebp
  1000da:	83 ec 08             	sub    $0x8,%esp
  1000dd:	83 ec 08             	sub    $0x8,%esp
  1000e0:	ff 75 10             	pushl  0x10(%ebp)
  1000e3:	ff 75 08             	pushl  0x8(%ebp)
  1000e6:	e8 c8 ff ff ff       	call   1000b3 <grade_backtrace1>
  1000eb:	83 c4 10             	add    $0x10,%esp
  1000ee:	c9                   	leave  
  1000ef:	c3                   	ret    

001000f0 <grade_backtrace>:
  1000f0:	55                   	push   %ebp
  1000f1:	89 e5                	mov    %esp,%ebp
  1000f3:	83 ec 08             	sub    $0x8,%esp
  1000f6:	b8 00 00 10 00       	mov    $0x100000,%eax
  1000fb:	83 ec 04             	sub    $0x4,%esp
  1000fe:	68 00 00 ff ff       	push   $0xffff0000
  100103:	50                   	push   %eax
  100104:	6a 00                	push   $0x0
  100106:	e8 cc ff ff ff       	call   1000d7 <grade_backtrace0>
  10010b:	83 c4 10             	add    $0x10,%esp
  10010e:	c9                   	leave  
  10010f:	c3                   	ret    
  100110:	55                   	push   %ebp
  100111:	89 e5                	mov    %esp,%ebp
  100113:	83 ec 18             	sub    $0x18,%esp
  100116:	8c 4d f6             	mov    %cs,-0xa(%ebp)
  100119:	8c 5d f4             	mov    %ds,-0xc(%ebp)
  10011c:	8c 45 f2             	mov    %es,-0xe(%ebp)
  10011f:	8c 55 f0             	mov    %ss,-0x10(%ebp)
  100122:	66 8b 45 f6          	mov    -0xa(%ebp),%ax
  100126:	0f b7 c0             	movzwl %ax,%eax
  100129:	83 e0 03             	and    $0x3,%eax
  10012c:	89 c2                	mov    %eax,%edx
  10012e:	a1 20 ea 10 00       	mov    0x10ea20,%eax
  100133:	83 ec 04             	sub    $0x4,%esp
  100136:	52                   	push   %edx
  100137:	50                   	push   %eax
  100138:	68 41 33 10 00       	push   $0x103341
  10013d:	e8 de 01 00 00       	call   100320 <cprintf>
  100142:	83 c4 10             	add    $0x10,%esp
  100145:	66 8b 45 f6          	mov    -0xa(%ebp),%ax
  100149:	0f b7 d0             	movzwl %ax,%edx
  10014c:	a1 20 ea 10 00       	mov    0x10ea20,%eax
  100151:	83 ec 04             	sub    $0x4,%esp
  100154:	52                   	push   %edx
  100155:	50                   	push   %eax
  100156:	68 4f 33 10 00       	push   $0x10334f
  10015b:	e8 c0 01 00 00       	call   100320 <cprintf>
  100160:	83 c4 10             	add    $0x10,%esp
  100163:	8b 45 f4             	mov    -0xc(%ebp),%eax
  100166:	0f b7 d0             	movzwl %ax,%edx
  100169:	a1 20 ea 10 00       	mov    0x10ea20,%eax
  10016e:	83 ec 04             	sub    $0x4,%esp
  100171:	52                   	push   %edx
  100172:	50                   	push   %eax
  100173:	68 5d 33 10 00       	push   $0x10335d
  100178:	e8 a3 01 00 00       	call   100320 <cprintf>
  10017d:	83 c4 10             	add    $0x10,%esp
  100180:	66 8b 45 f2          	mov    -0xe(%ebp),%ax
  100184:	0f b7 d0             	movzwl %ax,%edx
  100187:	a1 20 ea 10 00       	mov    0x10ea20,%eax
  10018c:	83 ec 04             	sub    $0x4,%esp
  10018f:	52                   	push   %edx
  100190:	50                   	push   %eax
  100191:	68 6b 33 10 00       	push   $0x10336b
  100196:	e8 85 01 00 00       	call   100320 <cprintf>
  10019b:	83 c4 10             	add    $0x10,%esp
  10019e:	8b 45 f0             	mov    -0x10(%ebp),%eax
  1001a1:	0f b7 d0             	movzwl %ax,%edx
  1001a4:	a1 20 ea 10 00       	mov    0x10ea20,%eax
  1001a9:	83 ec 04             	sub    $0x4,%esp
  1001ac:	52                   	push   %edx
  1001ad:	50                   	push   %eax
  1001ae:	68 79 33 10 00       	push   $0x103379
  1001b3:	e8 68 01 00 00       	call   100320 <cprintf>
  1001b8:	83 c4 10             	add    $0x10,%esp
  1001bb:	a1 20 ea 10 00       	mov    0x10ea20,%eax
  1001c0:	40                   	inc    %eax
  1001c1:	a3 20 ea 10 00       	mov    %eax,0x10ea20
  1001c6:	c9                   	leave  
  1001c7:	c3                   	ret    
  1001c8:	55                   	push   %ebp
  1001c9:	89 e5                	mov    %esp,%ebp
  1001cb:	5d                   	pop    %ebp
  1001cc:	c3                   	ret    
  1001cd:	55                   	push   %ebp
  1001ce:	89 e5                	mov    %esp,%ebp
  1001d0:	5d                   	pop    %ebp
  1001d1:	c3                   	ret    
  1001d2:	55                   	push   %ebp
  1001d3:	89 e5                	mov    %esp,%ebp
  1001d5:	83 ec 08             	sub    $0x8,%esp
  1001d8:	e8 33 ff ff ff       	call   100110 <grade_backtrace+0x20>
  1001dd:	83 ec 0c             	sub    $0xc,%esp
  1001e0:	68 88 33 10 00       	push   $0x103388
  1001e5:	e8 36 01 00 00       	call   100320 <cprintf>
  1001ea:	83 c4 10             	add    $0x10,%esp
  1001ed:	e8 d6 ff ff ff       	call   1001c8 <grade_backtrace+0xd8>
  1001f2:	e8 19 ff ff ff       	call   100110 <grade_backtrace+0x20>
  1001f7:	83 ec 0c             	sub    $0xc,%esp
  1001fa:	68 a8 33 10 00       	push   $0x1033a8
  1001ff:	e8 1c 01 00 00       	call   100320 <cprintf>
  100204:	83 c4 10             	add    $0x10,%esp
  100207:	e8 c1 ff ff ff       	call   1001cd <grade_backtrace+0xdd>
  10020c:	e8 ff fe ff ff       	call   100110 <grade_backtrace+0x20>
  100211:	c9                   	leave  
  100212:	c3                   	ret    

00100213 <readline>:
  100213:	55                   	push   %ebp
  100214:	89 e5                	mov    %esp,%ebp
  100216:	83 ec 18             	sub    $0x18,%esp
  100219:	83 7d 08 00          	cmpl   $0x0,0x8(%ebp)
  10021d:	74 13                	je     100232 <readline+0x1f>
  10021f:	83 ec 08             	sub    $0x8,%esp
  100222:	ff 75 08             	pushl  0x8(%ebp)
  100225:	68 c7 33 10 00       	push   $0x1033c7
  10022a:	e8 f1 00 00 00       	call   100320 <cprintf>
  10022f:	83 c4 10             	add    $0x10,%esp
  100232:	c7 45 f4 00 00 00 00 	movl   $0x0,-0xc(%ebp)
  100239:	e8 6b 01 00 00       	call   1003a9 <getchar>
  10023e:	89 45 f0             	mov    %eax,-0x10(%ebp)
  100241:	83 7d f0 00          	cmpl   $0x0,-0x10(%ebp)
  100245:	79 0a                	jns    100251 <readline+0x3e>
  100247:	b8 00 00 00 00       	mov    $0x0,%eax
  10024c:	e9 81 00 00 00       	jmp    1002d2 <readline+0xbf>
  100251:	83 7d f0 1f          	cmpl   $0x1f,-0x10(%ebp)
  100255:	7e 2b                	jle    100282 <readline+0x6f>
  100257:	81 7d f4 fe 03 00 00 	cmpl   $0x3fe,-0xc(%ebp)
  10025e:	7f 22                	jg     100282 <readline+0x6f>
  100260:	83 ec 0c             	sub    $0xc,%esp
  100263:	ff 75 f0             	pushl  -0x10(%ebp)
  100266:	e8 db 00 00 00       	call   100346 <cputchar>
  10026b:	83 c4 10             	add    $0x10,%esp
  10026e:	8b 45 f4             	mov    -0xc(%ebp),%eax
  100271:	8d 50 01             	lea    0x1(%eax),%edx
  100274:	89 55 f4             	mov    %edx,-0xc(%ebp)
  100277:	8b 55 f0             	mov    -0x10(%ebp),%edx
  10027a:	88 90 40 ea 10 00    	mov    %dl,0x10ea40(%eax)
  100280:	eb 4b                	jmp    1002cd <readline+0xba>
  100282:	83 7d f0 08          	cmpl   $0x8,-0x10(%ebp)
  100286:	75 19                	jne    1002a1 <readline+0x8e>
  100288:	83 7d f4 00          	cmpl   $0x0,-0xc(%ebp)
  10028c:	7e 13                	jle    1002a1 <readline+0x8e>
  10028e:	83 ec 0c             	sub    $0xc,%esp
  100291:	ff 75 f0             	pushl  -0x10(%ebp)
  100294:	e8 ad 00 00 00       	call   100346 <cputchar>
  100299:	83 c4 10             	add    $0x10,%esp
  10029c:	ff 4d f4             	decl   -0xc(%ebp)
  10029f:	eb 2c                	jmp    1002cd <readline+0xba>
  1002a1:	83 7d f0 0a          	cmpl   $0xa,-0x10(%ebp)
  1002a5:	74 06                	je     1002ad <readline+0x9a>
  1002a7:	83 7d f0 0d          	cmpl   $0xd,-0x10(%ebp)
  1002ab:	75 20                	jne    1002cd <readline+0xba>
  1002ad:	83 ec 0c             	sub    $0xc,%esp
  1002b0:	ff 75 f0             	pushl  -0x10(%ebp)
  1002b3:	e8 8e 00 00 00       	call   100346 <cputchar>
  1002b8:	83 c4 10             	add    $0x10,%esp
  1002bb:	8b 45 f4             	mov    -0xc(%ebp),%eax
  1002be:	05 40 ea 10 00       	add    $0x10ea40,%eax
  1002c3:	c6 00 00             	movb   $0x0,(%eax)
  1002c6:	b8 40 ea 10 00       	mov    $0x10ea40,%eax
  1002cb:	eb 05                	jmp    1002d2 <readline+0xbf>
  1002cd:	e9 67 ff ff ff       	jmp    100239 <readline+0x26>
  1002d2:	c9                   	leave  
  1002d3:	c3                   	ret    
  1002d4:	55                   	push   %ebp
  1002d5:	89 e5                	mov    %esp,%ebp
  1002d7:	83 ec 08             	sub    $0x8,%esp
  1002da:	83 ec 0c             	sub    $0xc,%esp
  1002dd:	ff 75 08             	pushl  0x8(%ebp)
  1002e0:	e8 39 12 00 00       	call   10151e <cons_putc>
  1002e5:	83 c4 10             	add    $0x10,%esp
  1002e8:	8b 45 0c             	mov    0xc(%ebp),%eax
  1002eb:	8b 00                	mov    (%eax),%eax
  1002ed:	8d 50 01             	lea    0x1(%eax),%edx
  1002f0:	8b 45 0c             	mov    0xc(%ebp),%eax
  1002f3:	89 10                	mov    %edx,(%eax)
  1002f5:	c9                   	leave  
  1002f6:	c3                   	ret    

001002f7 <vcprintf>:
  1002f7:	55                   	push   %ebp
  1002f8:	89 e5                	mov    %esp,%ebp
  1002fa:	83 ec 18             	sub    $0x18,%esp
  1002fd:	c7 45 f4 00 00 00 00 	movl   $0x0,-0xc(%ebp)
  100304:	ff 75 0c             	pushl  0xc(%ebp)
  100307:	ff 75 08             	pushl  0x8(%ebp)
  10030a:	8d 45 f4             	lea    -0xc(%ebp),%eax
  10030d:	50                   	push   %eax
  10030e:	68 a5 02 10 00       	push   $0x1002a5
  100313:	e8 4d 27 00 00       	call   102a65 <vprintfmt>
  100318:	83 c4 10             	add    $0x10,%esp
  10031b:	8b 45 f4             	mov    -0xc(%ebp),%eax
  10031e:	c9                   	leave  
  10031f:	c3                   	ret    

00100320 <cprintf>:
  100320:	55                   	push   %ebp
  100321:	89 e5                	mov    %esp,%ebp
  100323:	83 ec 18             	sub    $0x18,%esp
  100326:	8d 45 0c             	lea    0xc(%ebp),%eax
  100329:	89 45 f0             	mov    %eax,-0x10(%ebp)
  10032c:	8b 45 f0             	mov    -0x10(%ebp),%eax
  10032f:	83 ec 08             	sub    $0x8,%esp
  100332:	50                   	push   %eax
  100333:	ff 75 08             	pushl  0x8(%ebp)
  100336:	e8 bc ff ff ff       	call   1002f7 <vcprintf>
  10033b:	83 c4 10             	add    $0x10,%esp
  10033e:	89 45 f4             	mov    %eax,-0xc(%ebp)
  100341:	8b 45 f4             	mov    -0xc(%ebp),%eax
  100344:	c9                   	leave  
  100345:	c3                   	ret    

00100346 <cputchar>:
  100346:	55                   	push   %ebp
  100347:	89 e5                	mov    %esp,%ebp
  100349:	83 ec 08             	sub    $0x8,%esp
  10034c:	83 ec 0c             	sub    $0xc,%esp
  10034f:	ff 75 08             	pushl  0x8(%ebp)
  100352:	e8 c7 11 00 00       	call   10151e <cons_putc>
  100357:	83 c4 10             	add    $0x10,%esp
  10035a:	c9                   	leave  
  10035b:	c3                   	ret    

0010035c <cputs>:
  10035c:	55                   	push   %ebp
  10035d:	89 e5                	mov    %esp,%ebp
  10035f:	83 ec 18             	sub    $0x18,%esp
  100362:	c7 45 f0 00 00 00 00 	movl   $0x0,-0x10(%ebp)
  100369:	eb 14                	jmp    10037f <cputs+0x23>
  10036b:	0f be 45 f7          	movsbl -0x9(%ebp),%eax
  10036f:	83 ec 08             	sub    $0x8,%esp
  100372:	8d 55 f0             	lea    -0x10(%ebp),%edx
  100375:	52                   	push   %edx
  100376:	50                   	push   %eax
  100377:	e8 58 ff ff ff       	call   1002d4 <readline+0xc1>
  10037c:	83 c4 10             	add    $0x10,%esp
  10037f:	8b 45 08             	mov    0x8(%ebp),%eax
  100382:	8d 50 01             	lea    0x1(%eax),%edx
  100385:	89 55 08             	mov    %edx,0x8(%ebp)
  100388:	8a 00                	mov    (%eax),%al
  10038a:	88 45 f7             	mov    %al,-0x9(%ebp)
  10038d:	80 7d f7 00          	cmpb   $0x0,-0x9(%ebp)
  100391:	75 d8                	jne    10036b <cputs+0xf>
  100393:	83 ec 08             	sub    $0x8,%esp
  100396:	8d 45 f0             	lea    -0x10(%ebp),%eax
  100399:	50                   	push   %eax
  10039a:	6a 0a                	push   $0xa
  10039c:	e8 33 ff ff ff       	call   1002d4 <readline+0xc1>
  1003a1:	83 c4 10             	add    $0x10,%esp
  1003a4:	8b 45 f0             	mov    -0x10(%ebp),%eax
  1003a7:	c9                   	leave  
  1003a8:	c3                   	ret    

001003a9 <getchar>:
  1003a9:	55                   	push   %ebp
  1003aa:	89 e5                	mov    %esp,%ebp
  1003ac:	83 ec 18             	sub    $0x18,%esp
  1003af:	e8 99 11 00 00       	call   10154d <cons_getc>
  1003b4:	89 45 f4             	mov    %eax,-0xc(%ebp)
  1003b7:	83 7d f4 00          	cmpl   $0x0,-0xc(%ebp)
  1003bb:	74 f2                	je     1003af <getchar+0x6>
  1003bd:	8b 45 f4             	mov    -0xc(%ebp),%eax
  1003c0:	c9                   	leave  
  1003c1:	c3                   	ret    
  1003c2:	55                   	push   %ebp
  1003c3:	89 e5                	mov    %esp,%ebp
  1003c5:	83 ec 20             	sub    $0x20,%esp
  1003c8:	8b 45 0c             	mov    0xc(%ebp),%eax
  1003cb:	8b 00                	mov    (%eax),%eax
  1003cd:	89 45 fc             	mov    %eax,-0x4(%ebp)
  1003d0:	8b 45 10             	mov    0x10(%ebp),%eax
  1003d3:	8b 00                	mov    (%eax),%eax
  1003d5:	89 45 f8             	mov    %eax,-0x8(%ebp)
  1003d8:	c7 45 f4 00 00 00 00 	movl   $0x0,-0xc(%ebp)
  1003df:	e9 c9 00 00 00       	jmp    1004ad <getchar+0x104>
  1003e4:	8b 55 fc             	mov    -0x4(%ebp),%edx
  1003e7:	8b 45 f8             	mov    -0x8(%ebp),%eax
  1003ea:	01 d0                	add    %edx,%eax
  1003ec:	89 c2                	mov    %eax,%edx
  1003ee:	c1 ea 1f             	shr    $0x1f,%edx
  1003f1:	01 d0                	add    %edx,%eax
  1003f3:	d1 f8                	sar    %eax
  1003f5:	89 45 ec             	mov    %eax,-0x14(%ebp)
  1003f8:	8b 45 ec             	mov    -0x14(%ebp),%eax
  1003fb:	89 45 f0             	mov    %eax,-0x10(%ebp)
  1003fe:	eb 03                	jmp    100403 <getchar+0x5a>
  100400:	ff 4d f0             	decl   -0x10(%ebp)
  100403:	8b 45 f0             	mov    -0x10(%ebp),%eax
  100406:	3b 45 fc             	cmp    -0x4(%ebp),%eax
  100409:	7c 1e                	jl     100429 <getchar+0x80>
  10040b:	8b 55 f0             	mov    -0x10(%ebp),%edx
  10040e:	89 d0                	mov    %edx,%eax
  100410:	01 c0                	add    %eax,%eax
  100412:	01 d0                	add    %edx,%eax
  100414:	c1 e0 02             	shl    $0x2,%eax
  100417:	89 c2                	mov    %eax,%edx
  100419:	8b 45 08             	mov    0x8(%ebp),%eax
  10041c:	01 d0                	add    %edx,%eax
  10041e:	8a 40 04             	mov    0x4(%eax),%al
  100421:	0f b6 c0             	movzbl %al,%eax
  100424:	3b 45 14             	cmp    0x14(%ebp),%eax
  100427:	75 d7                	jne    100400 <getchar+0x57>
  100429:	8b 45 f0             	mov    -0x10(%ebp),%eax
  10042c:	3b 45 fc             	cmp    -0x4(%ebp),%eax
  10042f:	7d 09                	jge    10043a <getchar+0x91>
  100431:	8b 45 ec             	mov    -0x14(%ebp),%eax
  100434:	40                   	inc    %eax
  100435:	89 45 fc             	mov    %eax,-0x4(%ebp)
  100438:	eb 73                	jmp    1004ad <getchar+0x104>
  10043a:	c7 45 f4 01 00 00 00 	movl   $0x1,-0xc(%ebp)
  100441:	8b 55 f0             	mov    -0x10(%ebp),%edx
  100444:	89 d0                	mov    %edx,%eax
  100446:	01 c0                	add    %eax,%eax
  100448:	01 d0                	add    %edx,%eax
  10044a:	c1 e0 02             	shl    $0x2,%eax
  10044d:	89 c2                	mov    %eax,%edx
  10044f:	8b 45 08             	mov    0x8(%ebp),%eax
  100452:	01 d0                	add    %edx,%eax
  100454:	8b 40 08             	mov    0x8(%eax),%eax
  100457:	3b 45 18             	cmp    0x18(%ebp),%eax
  10045a:	73 11                	jae    10046d <getchar+0xc4>
  10045c:	8b 45 0c             	mov    0xc(%ebp),%eax
  10045f:	8b 55 f0             	mov    -0x10(%ebp),%edx
  100462:	89 10                	mov    %edx,(%eax)
  100464:	8b 45 ec             	mov    -0x14(%ebp),%eax
  100467:	40                   	inc    %eax
  100468:	89 45 fc             	mov    %eax,-0x4(%ebp)
  10046b:	eb 40                	jmp    1004ad <getchar+0x104>
  10046d:	8b 55 f0             	mov    -0x10(%ebp),%edx
  100470:	89 d0                	mov    %edx,%eax
  100472:	01 c0                	add    %eax,%eax
  100474:	01 d0                	add    %edx,%eax
  100476:	c1 e0 02             	shl    $0x2,%eax
  100479:	89 c2                	mov    %eax,%edx
  10047b:	8b 45 08             	mov    0x8(%ebp),%eax
  10047e:	01 d0                	add    %edx,%eax
  100480:	8b 40 08             	mov    0x8(%eax),%eax
  100483:	3b 45 18             	cmp    0x18(%ebp),%eax
  100486:	76 14                	jbe    10049c <getchar+0xf3>
  100488:	8b 45 f0             	mov    -0x10(%ebp),%eax
  10048b:	8d 50 ff             	lea    -0x1(%eax),%edx
  10048e:	8b 45 10             	mov    0x10(%ebp),%eax
  100491:	89 10                	mov    %edx,(%eax)
  100493:	8b 45 f0             	mov    -0x10(%ebp),%eax
  100496:	48                   	dec    %eax
  100497:	89 45 f8             	mov    %eax,-0x8(%ebp)
  10049a:	eb 11                	jmp    1004ad <getchar+0x104>
  10049c:	8b 45 0c             	mov    0xc(%ebp),%eax
  10049f:	8b 55 f0             	mov    -0x10(%ebp),%edx
  1004a2:	89 10                	mov    %edx,(%eax)
  1004a4:	8b 45 f0             	mov    -0x10(%ebp),%eax
  1004a7:	89 45 fc             	mov    %eax,-0x4(%ebp)
  1004aa:	ff 45 18             	incl   0x18(%ebp)
  1004ad:	8b 45 fc             	mov    -0x4(%ebp),%eax
  1004b0:	3b 45 f8             	cmp    -0x8(%ebp),%eax
  1004b3:	0f 8e 2b ff ff ff    	jle    1003e4 <getchar+0x3b>
  1004b9:	83 7d f4 00          	cmpl   $0x0,-0xc(%ebp)
  1004bd:	75 0f                	jne    1004ce <getchar+0x125>
  1004bf:	8b 45 0c             	mov    0xc(%ebp),%eax
  1004c2:	8b 00                	mov    (%eax),%eax
  1004c4:	8d 50 ff             	lea    -0x1(%eax),%edx
  1004c7:	8b 45 10             	mov    0x10(%ebp),%eax
  1004ca:	89 10                	mov    %edx,(%eax)
  1004cc:	eb 3d                	jmp    10050b <getchar+0x162>
  1004ce:	8b 45 10             	mov    0x10(%ebp),%eax
  1004d1:	8b 00                	mov    (%eax),%eax
  1004d3:	89 45 fc             	mov    %eax,-0x4(%ebp)
  1004d6:	eb 03                	jmp    1004db <getchar+0x132>
  1004d8:	ff 4d fc             	decl   -0x4(%ebp)
  1004db:	8b 45 0c             	mov    0xc(%ebp),%eax
  1004de:	8b 00                	mov    (%eax),%eax
  1004e0:	3b 45 fc             	cmp    -0x4(%ebp),%eax
  1004e3:	7d 1e                	jge    100503 <getchar+0x15a>
  1004e5:	8b 55 fc             	mov    -0x4(%ebp),%edx
  1004e8:	89 d0                	mov    %edx,%eax
  1004ea:	01 c0                	add    %eax,%eax
  1004ec:	01 d0                	add    %edx,%eax
  1004ee:	c1 e0 02             	shl    $0x2,%eax
  1004f1:	89 c2                	mov    %eax,%edx
  1004f3:	8b 45 08             	mov    0x8(%ebp),%eax
  1004f6:	01 d0                	add    %edx,%eax
  1004f8:	8a 40 04             	mov    0x4(%eax),%al
  1004fb:	0f b6 c0             	movzbl %al,%eax
  1004fe:	3b 45 14             	cmp    0x14(%ebp),%eax
  100501:	75 d5                	jne    1004d8 <getchar+0x12f>
  100503:	8b 45 0c             	mov    0xc(%ebp),%eax
  100506:	8b 55 fc             	mov    -0x4(%ebp),%edx
  100509:	89 10                	mov    %edx,(%eax)
  10050b:	c9                   	leave  
  10050c:	c3                   	ret    

0010050d <debuginfo_eip>:
  10050d:	55                   	push   %ebp
  10050e:	89 e5                	mov    %esp,%ebp
  100510:	83 ec 38             	sub    $0x38,%esp
  100513:	8b 45 0c             	mov    0xc(%ebp),%eax
  100516:	c7 00 cc 33 10 00    	movl   $0x1033cc,(%eax)
  10051c:	8b 45 0c             	mov    0xc(%ebp),%eax
  10051f:	c7 40 04 00 00 00 00 	movl   $0x0,0x4(%eax)
  100526:	8b 45 0c             	mov    0xc(%ebp),%eax
  100529:	c7 40 08 cc 33 10 00 	movl   $0x1033cc,0x8(%eax)
  100530:	8b 45 0c             	mov    0xc(%ebp),%eax
  100533:	c7 40 0c 09 00 00 00 	movl   $0x9,0xc(%eax)
  10053a:	8b 45 0c             	mov    0xc(%ebp),%eax
  10053d:	8b 55 08             	mov    0x8(%ebp),%edx
  100540:	89 50 10             	mov    %edx,0x10(%eax)
  100543:	8b 45 0c             	mov    0xc(%ebp),%eax
  100546:	c7 40 14 00 00 00 00 	movl   $0x0,0x14(%eax)
  10054d:	c7 45 f4 2c 3c 10 00 	movl   $0x103c2c,-0xc(%ebp)
  100554:	c7 45 f0 e0 b1 10 00 	movl   $0x10b1e0,-0x10(%ebp)
  10055b:	c7 45 ec e1 b1 10 00 	movl   $0x10b1e1,-0x14(%ebp)
  100562:	c7 45 e8 bc d1 10 00 	movl   $0x10d1bc,-0x18(%ebp)
  100569:	8b 45 e8             	mov    -0x18(%ebp),%eax
  10056c:	3b 45 ec             	cmp    -0x14(%ebp),%eax
  10056f:	76 0a                	jbe    10057b <debuginfo_eip+0x6e>
  100571:	8b 45 e8             	mov    -0x18(%ebp),%eax
  100574:	48                   	dec    %eax
  100575:	8a 00                	mov    (%eax),%al
  100577:	84 c0                	test   %al,%al
  100579:	74 0a                	je     100585 <debuginfo_eip+0x78>
  10057b:	b8 ff ff ff ff       	mov    $0xffffffff,%eax
  100580:	e9 a5 02 00 00       	jmp    10082a <debuginfo_eip+0x31d>
  100585:	c7 45 e4 00 00 00 00 	movl   $0x0,-0x1c(%ebp)
  10058c:	8b 55 f0             	mov    -0x10(%ebp),%edx
  10058f:	8b 45 f4             	mov    -0xc(%ebp),%eax
  100592:	29 c2                	sub    %eax,%edx
  100594:	89 d0                	mov    %edx,%eax
  100596:	c1 f8 02             	sar    $0x2,%eax
  100599:	89 c2                	mov    %eax,%edx
  10059b:	89 d0                	mov    %edx,%eax
  10059d:	c1 e0 02             	shl    $0x2,%eax
  1005a0:	01 d0                	add    %edx,%eax
  1005a2:	c1 e0 02             	shl    $0x2,%eax
  1005a5:	01 d0                	add    %edx,%eax
  1005a7:	c1 e0 02             	shl    $0x2,%eax
  1005aa:	01 d0                	add    %edx,%eax
  1005ac:	89 c1                	mov    %eax,%ecx
  1005ae:	c1 e1 08             	shl    $0x8,%ecx
  1005b1:	01 c8                	add    %ecx,%eax
  1005b3:	89 c1                	mov    %eax,%ecx
  1005b5:	c1 e1 10             	shl    $0x10,%ecx
  1005b8:	01 c8                	add    %ecx,%eax
  1005ba:	01 c0                	add    %eax,%eax
  1005bc:	01 d0                	add    %edx,%eax
  1005be:	48                   	dec    %eax
  1005bf:	89 45 e0             	mov    %eax,-0x20(%ebp)
  1005c2:	ff 75 08             	pushl  0x8(%ebp)
  1005c5:	6a 64                	push   $0x64
  1005c7:	8d 45 e0             	lea    -0x20(%ebp),%eax
  1005ca:	50                   	push   %eax
  1005cb:	8d 45 e4             	lea    -0x1c(%ebp),%eax
  1005ce:	50                   	push   %eax
  1005cf:	ff 75 f4             	pushl  -0xc(%ebp)
  1005d2:	e8 eb fd ff ff       	call   1003c2 <getchar+0x19>
  1005d7:	83 c4 14             	add    $0x14,%esp
  1005da:	8b 45 e4             	mov    -0x1c(%ebp),%eax
  1005dd:	85 c0                	test   %eax,%eax
  1005df:	75 0a                	jne    1005eb <debuginfo_eip+0xde>
  1005e1:	b8 ff ff ff ff       	mov    $0xffffffff,%eax
  1005e6:	e9 3f 02 00 00       	jmp    10082a <debuginfo_eip+0x31d>
  1005eb:	8b 45 e4             	mov    -0x1c(%ebp),%eax
  1005ee:	89 45 dc             	mov    %eax,-0x24(%ebp)
  1005f1:	8b 45 e0             	mov    -0x20(%ebp),%eax
  1005f4:	89 45 d8             	mov    %eax,-0x28(%ebp)
  1005f7:	ff 75 08             	pushl  0x8(%ebp)
  1005fa:	6a 24                	push   $0x24
  1005fc:	8d 45 d8             	lea    -0x28(%ebp),%eax
  1005ff:	50                   	push   %eax
  100600:	8d 45 dc             	lea    -0x24(%ebp),%eax
  100603:	50                   	push   %eax
  100604:	ff 75 f4             	pushl  -0xc(%ebp)
  100607:	e8 b6 fd ff ff       	call   1003c2 <getchar+0x19>
  10060c:	83 c4 14             	add    $0x14,%esp
  10060f:	8b 55 dc             	mov    -0x24(%ebp),%edx
  100612:	8b 45 d8             	mov    -0x28(%ebp),%eax
  100615:	39 c2                	cmp    %eax,%edx
  100617:	7f 7c                	jg     100695 <debuginfo_eip+0x188>
  100619:	8b 45 dc             	mov    -0x24(%ebp),%eax
  10061c:	89 c2                	mov    %eax,%edx
  10061e:	89 d0                	mov    %edx,%eax
  100620:	01 c0                	add    %eax,%eax
  100622:	01 d0                	add    %edx,%eax
  100624:	c1 e0 02             	shl    $0x2,%eax
  100627:	89 c2                	mov    %eax,%edx
  100629:	8b 45 f4             	mov    -0xc(%ebp),%eax
  10062c:	01 d0                	add    %edx,%eax
  10062e:	8b 00                	mov    (%eax),%eax
  100630:	8b 4d e8             	mov    -0x18(%ebp),%ecx
  100633:	8b 55 ec             	mov    -0x14(%ebp),%edx
  100636:	29 d1                	sub    %edx,%ecx
  100638:	89 ca                	mov    %ecx,%edx
  10063a:	39 d0                	cmp    %edx,%eax
  10063c:	73 22                	jae    100660 <debuginfo_eip+0x153>
  10063e:	8b 45 dc             	mov    -0x24(%ebp),%eax
  100641:	89 c2                	mov    %eax,%edx
  100643:	89 d0                	mov    %edx,%eax
  100645:	01 c0                	add    %eax,%eax
  100647:	01 d0                	add    %edx,%eax
  100649:	c1 e0 02             	shl    $0x2,%eax
  10064c:	89 c2                	mov    %eax,%edx
  10064e:	8b 45 f4             	mov    -0xc(%ebp),%eax
  100651:	01 d0                	add    %edx,%eax
  100653:	8b 10                	mov    (%eax),%edx
  100655:	8b 45 ec             	mov    -0x14(%ebp),%eax
  100658:	01 c2                	add    %eax,%edx
  10065a:	8b 45 0c             	mov    0xc(%ebp),%eax
  10065d:	89 50 08             	mov    %edx,0x8(%eax)
  100660:	8b 45 dc             	mov    -0x24(%ebp),%eax
  100663:	89 c2                	mov    %eax,%edx
  100665:	89 d0                	mov    %edx,%eax
  100667:	01 c0                	add    %eax,%eax
  100669:	01 d0                	add    %edx,%eax
  10066b:	c1 e0 02             	shl    $0x2,%eax
  10066e:	89 c2                	mov    %eax,%edx
  100670:	8b 45 f4             	mov    -0xc(%ebp),%eax
  100673:	01 d0                	add    %edx,%eax
  100675:	8b 50 08             	mov    0x8(%eax),%edx
  100678:	8b 45 0c             	mov    0xc(%ebp),%eax
  10067b:	89 50 10             	mov    %edx,0x10(%eax)
  10067e:	8b 45 0c             	mov    0xc(%ebp),%eax
  100681:	8b 40 10             	mov    0x10(%eax),%eax
  100684:	29 45 08             	sub    %eax,0x8(%ebp)
  100687:	8b 45 dc             	mov    -0x24(%ebp),%eax
  10068a:	89 45 d4             	mov    %eax,-0x2c(%ebp)
  10068d:	8b 45 d8             	mov    -0x28(%ebp),%eax
  100690:	89 45 d0             	mov    %eax,-0x30(%ebp)
  100693:	eb 15                	jmp    1006aa <debuginfo_eip+0x19d>
  100695:	8b 45 0c             	mov    0xc(%ebp),%eax
  100698:	8b 55 08             	mov    0x8(%ebp),%edx
  10069b:	89 50 10             	mov    %edx,0x10(%eax)
  10069e:	8b 45 e4             	mov    -0x1c(%ebp),%eax
  1006a1:	89 45 d4             	mov    %eax,-0x2c(%ebp)
  1006a4:	8b 45 e0             	mov    -0x20(%ebp),%eax
  1006a7:	89 45 d0             	mov    %eax,-0x30(%ebp)
  1006aa:	8b 45 0c             	mov    0xc(%ebp),%eax
  1006ad:	8b 40 08             	mov    0x8(%eax),%eax
  1006b0:	83 ec 08             	sub    $0x8,%esp
  1006b3:	6a 3a                	push   $0x3a
  1006b5:	50                   	push   %eax
  1006b6:	e8 89 29 00 00       	call   103044 <strfind>
  1006bb:	83 c4 10             	add    $0x10,%esp
  1006be:	89 c2                	mov    %eax,%edx
  1006c0:	8b 45 0c             	mov    0xc(%ebp),%eax
  1006c3:	8b 40 08             	mov    0x8(%eax),%eax
  1006c6:	29 c2                	sub    %eax,%edx
  1006c8:	8b 45 0c             	mov    0xc(%ebp),%eax
  1006cb:	89 50 0c             	mov    %edx,0xc(%eax)
  1006ce:	83 ec 0c             	sub    $0xc,%esp
  1006d1:	ff 75 08             	pushl  0x8(%ebp)
  1006d4:	6a 44                	push   $0x44
  1006d6:	8d 45 d0             	lea    -0x30(%ebp),%eax
  1006d9:	50                   	push   %eax
  1006da:	8d 45 d4             	lea    -0x2c(%ebp),%eax
  1006dd:	50                   	push   %eax
  1006de:	ff 75 f4             	pushl  -0xc(%ebp)
  1006e1:	e8 dc fc ff ff       	call   1003c2 <getchar+0x19>
  1006e6:	83 c4 20             	add    $0x20,%esp
  1006e9:	8b 55 d4             	mov    -0x2c(%ebp),%edx
  1006ec:	8b 45 d0             	mov    -0x30(%ebp),%eax
  1006ef:	39 c2                	cmp    %eax,%edx
  1006f1:	7f 24                	jg     100717 <debuginfo_eip+0x20a>
  1006f3:	8b 45 d0             	mov    -0x30(%ebp),%eax
  1006f6:	89 c2                	mov    %eax,%edx
  1006f8:	89 d0                	mov    %edx,%eax
  1006fa:	01 c0                	add    %eax,%eax
  1006fc:	01 d0                	add    %edx,%eax
  1006fe:	c1 e0 02             	shl    $0x2,%eax
  100701:	89 c2                	mov    %eax,%edx
  100703:	8b 45 f4             	mov    -0xc(%ebp),%eax
  100706:	01 d0                	add    %edx,%eax
  100708:	66 8b 40 06          	mov    0x6(%eax),%ax
  10070c:	0f b7 d0             	movzwl %ax,%edx
  10070f:	8b 45 0c             	mov    0xc(%ebp),%eax
  100712:	89 50 04             	mov    %edx,0x4(%eax)
  100715:	eb 11                	jmp    100728 <debuginfo_eip+0x21b>
  100717:	b8 ff ff ff ff       	mov    $0xffffffff,%eax
  10071c:	e9 09 01 00 00       	jmp    10082a <debuginfo_eip+0x31d>
  100721:	8b 45 d4             	mov    -0x2c(%ebp),%eax
  100724:	48                   	dec    %eax
  100725:	89 45 d4             	mov    %eax,-0x2c(%ebp)
  100728:	8b 55 d4             	mov    -0x2c(%ebp),%edx
  10072b:	8b 45 e4             	mov    -0x1c(%ebp),%eax
  10072e:	39 c2                	cmp    %eax,%edx
  100730:	7c 54                	jl     100786 <debuginfo_eip+0x279>
  100732:	8b 45 d4             	mov    -0x2c(%ebp),%eax
  100735:	89 c2                	mov    %eax,%edx
  100737:	89 d0                	mov    %edx,%eax
  100739:	01 c0                	add    %eax,%eax
  10073b:	01 d0                	add    %edx,%eax
  10073d:	c1 e0 02             	shl    $0x2,%eax
  100740:	89 c2                	mov    %eax,%edx
  100742:	8b 45 f4             	mov    -0xc(%ebp),%eax
  100745:	01 d0                	add    %edx,%eax
  100747:	8a 40 04             	mov    0x4(%eax),%al
  10074a:	3c 84                	cmp    $0x84,%al
  10074c:	74 38                	je     100786 <debuginfo_eip+0x279>
  10074e:	8b 45 d4             	mov    -0x2c(%ebp),%eax
  100751:	89 c2                	mov    %eax,%edx
  100753:	89 d0                	mov    %edx,%eax
  100755:	01 c0                	add    %eax,%eax
  100757:	01 d0                	add    %edx,%eax
  100759:	c1 e0 02             	shl    $0x2,%eax
  10075c:	89 c2                	mov    %eax,%edx
  10075e:	8b 45 f4             	mov    -0xc(%ebp),%eax
  100761:	01 d0                	add    %edx,%eax
  100763:	8a 40 04             	mov    0x4(%eax),%al
  100766:	3c 64                	cmp    $0x64,%al
  100768:	75 b7                	jne    100721 <debuginfo_eip+0x214>
  10076a:	8b 45 d4             	mov    -0x2c(%ebp),%eax
  10076d:	89 c2                	mov    %eax,%edx
  10076f:	89 d0                	mov    %edx,%eax
  100771:	01 c0                	add    %eax,%eax
  100773:	01 d0                	add    %edx,%eax
  100775:	c1 e0 02             	shl    $0x2,%eax
  100778:	89 c2                	mov    %eax,%edx
  10077a:	8b 45 f4             	mov    -0xc(%ebp),%eax
  10077d:	01 d0                	add    %edx,%eax
  10077f:	8b 40 08             	mov    0x8(%eax),%eax
  100782:	85 c0                	test   %eax,%eax
  100784:	74 9b                	je     100721 <debuginfo_eip+0x214>
  100786:	8b 55 d4             	mov    -0x2c(%ebp),%edx
  100789:	8b 45 e4             	mov    -0x1c(%ebp),%eax
  10078c:	39 c2                	cmp    %eax,%edx
  10078e:	7c 46                	jl     1007d6 <debuginfo_eip+0x2c9>
  100790:	8b 45 d4             	mov    -0x2c(%ebp),%eax
  100793:	89 c2                	mov    %eax,%edx
  100795:	89 d0                	mov    %edx,%eax
  100797:	01 c0                	add    %eax,%eax
  100799:	01 d0                	add    %edx,%eax
  10079b:	c1 e0 02             	shl    $0x2,%eax
  10079e:	89 c2                	mov    %eax,%edx
  1007a0:	8b 45 f4             	mov    -0xc(%ebp),%eax
  1007a3:	01 d0                	add    %edx,%eax
  1007a5:	8b 00                	mov    (%eax),%eax
  1007a7:	8b 4d e8             	mov    -0x18(%ebp),%ecx
  1007aa:	8b 55 ec             	mov    -0x14(%ebp),%edx
  1007ad:	29 d1                	sub    %edx,%ecx
  1007af:	89 ca                	mov    %ecx,%edx
  1007b1:	39 d0                	cmp    %edx,%eax
  1007b3:	73 21                	jae    1007d6 <debuginfo_eip+0x2c9>
  1007b5:	8b 45 d4             	mov    -0x2c(%ebp),%eax
  1007b8:	89 c2                	mov    %eax,%edx
  1007ba:	89 d0                	mov    %edx,%eax
  1007bc:	01 c0                	add    %eax,%eax
  1007be:	01 d0                	add    %edx,%eax
  1007c0:	c1 e0 02             	shl    $0x2,%eax
  1007c3:	89 c2                	mov    %eax,%edx
  1007c5:	8b 45 f4             	mov    -0xc(%ebp),%eax
  1007c8:	01 d0                	add    %edx,%eax
  1007ca:	8b 10                	mov    (%eax),%edx
  1007cc:	8b 45 ec             	mov    -0x14(%ebp),%eax
  1007cf:	01 c2                	add    %eax,%edx
  1007d1:	8b 45 0c             	mov    0xc(%ebp),%eax
  1007d4:	89 10                	mov    %edx,(%eax)
  1007d6:	8b 55 dc             	mov    -0x24(%ebp),%edx
  1007d9:	8b 45 d8             	mov    -0x28(%ebp),%eax
  1007dc:	39 c2                	cmp    %eax,%edx
  1007de:	7d 45                	jge    100825 <debuginfo_eip+0x318>
  1007e0:	8b 45 dc             	mov    -0x24(%ebp),%eax
  1007e3:	40                   	inc    %eax
  1007e4:	89 45 d4             	mov    %eax,-0x2c(%ebp)
  1007e7:	eb 16                	jmp    1007ff <debuginfo_eip+0x2f2>
  1007e9:	8b 45 0c             	mov    0xc(%ebp),%eax
  1007ec:	8b 40 14             	mov    0x14(%eax),%eax
  1007ef:	8d 50 01             	lea    0x1(%eax),%edx
  1007f2:	8b 45 0c             	mov    0xc(%ebp),%eax
  1007f5:	89 50 14             	mov    %edx,0x14(%eax)
  1007f8:	8b 45 d4             	mov    -0x2c(%ebp),%eax
  1007fb:	40                   	inc    %eax
  1007fc:	89 45 d4             	mov    %eax,-0x2c(%ebp)
  1007ff:	8b 55 d4             	mov    -0x2c(%ebp),%edx
  100802:	8b 45 d8             	mov    -0x28(%ebp),%eax
  100805:	39 c2                	cmp    %eax,%edx
  100807:	7d 1c                	jge    100825 <debuginfo_eip+0x318>
  100809:	8b 45 d4             	mov    -0x2c(%ebp),%eax
  10080c:	89 c2                	mov    %eax,%edx
  10080e:	89 d0                	mov    %edx,%eax
  100810:	01 c0                	add    %eax,%eax
  100812:	01 d0                	add    %edx,%eax
  100814:	c1 e0 02             	shl    $0x2,%eax
  100817:	89 c2                	mov    %eax,%edx
  100819:	8b 45 f4             	mov    -0xc(%ebp),%eax
  10081c:	01 d0                	add    %edx,%eax
  10081e:	8a 40 04             	mov    0x4(%eax),%al
  100821:	3c a0                	cmp    $0xa0,%al
  100823:	74 c4                	je     1007e9 <debuginfo_eip+0x2dc>
  100825:	b8 00 00 00 00       	mov    $0x0,%eax
  10082a:	c9                   	leave  
  10082b:	c3                   	ret    

0010082c <print_kerninfo>:
  10082c:	55                   	push   %ebp
  10082d:	89 e5                	mov    %esp,%ebp
  10082f:	83 ec 08             	sub    $0x8,%esp
  100832:	83 ec 0c             	sub    $0xc,%esp
  100835:	68 d6 33 10 00       	push   $0x1033d6
  10083a:	e8 e1 fa ff ff       	call   100320 <cprintf>
  10083f:	83 c4 10             	add    $0x10,%esp
  100842:	83 ec 08             	sub    $0x8,%esp
  100845:	68 00 00 10 00       	push   $0x100000
  10084a:	68 ef 33 10 00       	push   $0x1033ef
  10084f:	e8 cc fa ff ff       	call   100320 <cprintf>
  100854:	83 c4 10             	add    $0x10,%esp
  100857:	83 ec 08             	sub    $0x8,%esp
  10085a:	68 0b 33 10 00       	push   $0x10330b
  10085f:	68 07 34 10 00       	push   $0x103407
  100864:	e8 b7 fa ff ff       	call   100320 <cprintf>
  100869:	83 c4 10             	add    $0x10,%esp
  10086c:	83 ec 08             	sub    $0x8,%esp
  10086f:	68 16 ea 10 00       	push   $0x10ea16
  100874:	68 1f 34 10 00       	push   $0x10341f
  100879:	e8 a2 fa ff ff       	call   100320 <cprintf>
  10087e:	83 c4 10             	add    $0x10,%esp
  100881:	83 ec 08             	sub    $0x8,%esp
  100884:	68 20 fd 10 00       	push   $0x10fd20
  100889:	68 37 34 10 00       	push   $0x103437
  10088e:	e8 8d fa ff ff       	call   100320 <cprintf>
  100893:	83 c4 10             	add    $0x10,%esp
  100896:	b8 20 fd 10 00       	mov    $0x10fd20,%eax
  10089b:	8d 90 ff 03 00 00    	lea    0x3ff(%eax),%edx
  1008a1:	b8 00 00 10 00       	mov    $0x100000,%eax
  1008a6:	29 c2                	sub    %eax,%edx
  1008a8:	89 d0                	mov    %edx,%eax
  1008aa:	85 c0                	test   %eax,%eax
  1008ac:	79 05                	jns    1008b3 <print_kerninfo+0x87>
  1008ae:	05 ff 03 00 00       	add    $0x3ff,%eax
  1008b3:	c1 f8 0a             	sar    $0xa,%eax
  1008b6:	83 ec 08             	sub    $0x8,%esp
  1008b9:	50                   	push   %eax
  1008ba:	68 50 34 10 00       	push   $0x103450
  1008bf:	e8 5c fa ff ff       	call   100320 <cprintf>
  1008c4:	83 c4 10             	add    $0x10,%esp
  1008c7:	c9                   	leave  
  1008c8:	c3                   	ret    

001008c9 <print_debuginfo>:
  1008c9:	55                   	push   %ebp
  1008ca:	89 e5                	mov    %esp,%ebp
  1008cc:	81 ec 28 01 00 00    	sub    $0x128,%esp
  1008d2:	83 ec 08             	sub    $0x8,%esp
  1008d5:	8d 45 dc             	lea    -0x24(%ebp),%eax
  1008d8:	50                   	push   %eax
  1008d9:	ff 75 08             	pushl  0x8(%ebp)
  1008dc:	e8 2c fc ff ff       	call   10050d <debuginfo_eip>
  1008e1:	83 c4 10             	add    $0x10,%esp
  1008e4:	85 c0                	test   %eax,%eax
  1008e6:	74 15                	je     1008fd <print_debuginfo+0x34>
  1008e8:	83 ec 08             	sub    $0x8,%esp
  1008eb:	ff 75 08             	pushl  0x8(%ebp)
  1008ee:	68 7a 34 10 00       	push   $0x10347a
  1008f3:	e8 28 fa ff ff       	call   100320 <cprintf>
  1008f8:	83 c4 10             	add    $0x10,%esp
  1008fb:	eb 63                	jmp    100960 <print_debuginfo+0x97>
  1008fd:	c7 45 f4 00 00 00 00 	movl   $0x0,-0xc(%ebp)
  100904:	eb 1a                	jmp    100920 <print_debuginfo+0x57>
  100906:	8b 55 e4             	mov    -0x1c(%ebp),%edx
  100909:	8b 45 f4             	mov    -0xc(%ebp),%eax
  10090c:	01 d0                	add    %edx,%eax
  10090e:	8a 00                	mov    (%eax),%al
  100910:	8d 8d dc fe ff ff    	lea    -0x124(%ebp),%ecx
  100916:	8b 55 f4             	mov    -0xc(%ebp),%edx
  100919:	01 ca                	add    %ecx,%edx
  10091b:	88 02                	mov    %al,(%edx)
  10091d:	ff 45 f4             	incl   -0xc(%ebp)
  100920:	8b 45 e8             	mov    -0x18(%ebp),%eax
  100923:	3b 45 f4             	cmp    -0xc(%ebp),%eax
  100926:	7f de                	jg     100906 <print_debuginfo+0x3d>
  100928:	8d 95 dc fe ff ff    	lea    -0x124(%ebp),%edx
  10092e:	8b 45 f4             	mov    -0xc(%ebp),%eax
  100931:	01 d0                	add    %edx,%eax
  100933:	c6 00 00             	movb   $0x0,(%eax)
  100936:	8b 45 ec             	mov    -0x14(%ebp),%eax
  100939:	8b 55 08             	mov    0x8(%ebp),%edx
  10093c:	89 d1                	mov    %edx,%ecx
  10093e:	29 c1                	sub    %eax,%ecx
  100940:	8b 55 e0             	mov    -0x20(%ebp),%edx
  100943:	8b 45 dc             	mov    -0x24(%ebp),%eax
  100946:	83 ec 0c             	sub    $0xc,%esp
  100949:	51                   	push   %ecx
  10094a:	8d 8d dc fe ff ff    	lea    -0x124(%ebp),%ecx
  100950:	51                   	push   %ecx
  100951:	52                   	push   %edx
  100952:	50                   	push   %eax
  100953:	68 96 34 10 00       	push   $0x103496
  100958:	e8 c3 f9 ff ff       	call   100320 <cprintf>
  10095d:	83 c4 20             	add    $0x20,%esp
  100960:	c9                   	leave  
  100961:	c3                   	ret    
  100962:	55                   	push   %ebp
  100963:	89 e5                	mov    %esp,%ebp
  100965:	83 ec 10             	sub    $0x10,%esp
  100968:	8b 45 04             	mov    0x4(%ebp),%eax
  10096b:	89 45 fc             	mov    %eax,-0x4(%ebp)
  10096e:	8b 45 fc             	mov    -0x4(%ebp),%eax
  100971:	c9                   	leave  
  100972:	c3                   	ret    

00100973 <print_stackframe>:
  100973:	55                   	push   %ebp
  100974:	89 e5                	mov    %esp,%ebp
  100976:	83 ec 28             	sub    $0x28,%esp
  100979:	89 e8                	mov    %ebp,%eax
  10097b:	89 45 e0             	mov    %eax,-0x20(%ebp)
  10097e:	8b 45 e0             	mov    -0x20(%ebp),%eax
  100981:	89 45 f4             	mov    %eax,-0xc(%ebp)
  100984:	e8 d9 ff ff ff       	call   100962 <print_debuginfo+0x99>
  100989:	89 45 f0             	mov    %eax,-0x10(%ebp)
  10098c:	c7 45 ec 00 00 00 00 	movl   $0x0,-0x14(%ebp)
  100993:	e9 89 00 00 00       	jmp    100a21 <print_stackframe+0xae>
  100998:	83 ec 04             	sub    $0x4,%esp
  10099b:	ff 75 f0             	pushl  -0x10(%ebp)
  10099e:	ff 75 f4             	pushl  -0xc(%ebp)
  1009a1:	68 a8 34 10 00       	push   $0x1034a8
  1009a6:	e8 75 f9 ff ff       	call   100320 <cprintf>
  1009ab:	83 c4 10             	add    $0x10,%esp
  1009ae:	8b 45 f4             	mov    -0xc(%ebp),%eax
  1009b1:	83 c0 08             	add    $0x8,%eax
  1009b4:	89 45 e4             	mov    %eax,-0x1c(%ebp)
  1009b7:	c7 45 e8 00 00 00 00 	movl   $0x0,-0x18(%ebp)
  1009be:	eb 25                	jmp    1009e5 <print_stackframe+0x72>
  1009c0:	8b 45 e8             	mov    -0x18(%ebp),%eax
  1009c3:	8d 14 85 00 00 00 00 	lea    0x0(,%eax,4),%edx
  1009ca:	8b 45 e4             	mov    -0x1c(%ebp),%eax
  1009cd:	01 d0                	add    %edx,%eax
  1009cf:	8b 00                	mov    (%eax),%eax
  1009d1:	83 ec 08             	sub    $0x8,%esp
  1009d4:	50                   	push   %eax
  1009d5:	68 c4 34 10 00       	push   $0x1034c4
  1009da:	e8 41 f9 ff ff       	call   100320 <cprintf>
  1009df:	83 c4 10             	add    $0x10,%esp
  1009e2:	ff 45 e8             	incl   -0x18(%ebp)
  1009e5:	83 7d e8 03          	cmpl   $0x3,-0x18(%ebp)
  1009e9:	7e d5                	jle    1009c0 <print_stackframe+0x4d>
  1009eb:	83 ec 0c             	sub    $0xc,%esp
  1009ee:	68 cc 34 10 00       	push   $0x1034cc
  1009f3:	e8 28 f9 ff ff       	call   100320 <cprintf>
  1009f8:	83 c4 10             	add    $0x10,%esp
  1009fb:	8b 45 f0             	mov    -0x10(%ebp),%eax
  1009fe:	48                   	dec    %eax
  1009ff:	83 ec 0c             	sub    $0xc,%esp
  100a02:	50                   	push   %eax
  100a03:	e8 c1 fe ff ff       	call   1008c9 <print_debuginfo>
  100a08:	83 c4 10             	add    $0x10,%esp
  100a0b:	8b 45 f4             	mov    -0xc(%ebp),%eax
  100a0e:	83 c0 04             	add    $0x4,%eax
  100a11:	8b 00                	mov    (%eax),%eax
  100a13:	89 45 f0             	mov    %eax,-0x10(%ebp)
  100a16:	8b 45 f4             	mov    -0xc(%ebp),%eax
  100a19:	8b 00                	mov    (%eax),%eax
  100a1b:	89 45 f4             	mov    %eax,-0xc(%ebp)
  100a1e:	ff 45 ec             	incl   -0x14(%ebp)
  100a21:	83 7d f4 00          	cmpl   $0x0,-0xc(%ebp)
  100a25:	74 0a                	je     100a31 <print_stackframe+0xbe>
  100a27:	83 7d ec 13          	cmpl   $0x13,-0x14(%ebp)
  100a2b:	0f 8e 67 ff ff ff    	jle    100998 <print_stackframe+0x25>
  100a31:	c9                   	leave  
  100a32:	c3                   	ret    
  100a33:	55                   	push   %ebp
  100a34:	89 e5                	mov    %esp,%ebp
  100a36:	83 ec 18             	sub    $0x18,%esp
  100a39:	c7 45 f4 00 00 00 00 	movl   $0x0,-0xc(%ebp)
  100a40:	eb 0c                	jmp    100a4e <print_stackframe+0xdb>
  100a42:	8b 45 08             	mov    0x8(%ebp),%eax
  100a45:	8d 50 01             	lea    0x1(%eax),%edx
  100a48:	89 55 08             	mov    %edx,0x8(%ebp)
  100a4b:	c6 00 00             	movb   $0x0,(%eax)
  100a4e:	8b 45 08             	mov    0x8(%ebp),%eax
  100a51:	8a 00                	mov    (%eax),%al
  100a53:	84 c0                	test   %al,%al
  100a55:	74 1d                	je     100a74 <print_stackframe+0x101>
  100a57:	8b 45 08             	mov    0x8(%ebp),%eax
  100a5a:	8a 00                	mov    (%eax),%al
  100a5c:	0f be c0             	movsbl %al,%eax
  100a5f:	83 ec 08             	sub    $0x8,%esp
  100a62:	50                   	push   %eax
  100a63:	68 50 35 10 00       	push   $0x103550
  100a68:	e8 a7 25 00 00       	call   103014 <strchr>
  100a6d:	83 c4 10             	add    $0x10,%esp
  100a70:	85 c0                	test   %eax,%eax
  100a72:	75 ce                	jne    100a42 <print_stackframe+0xcf>
  100a74:	8b 45 08             	mov    0x8(%ebp),%eax
  100a77:	8a 00                	mov    (%eax),%al
  100a79:	84 c0                	test   %al,%al
  100a7b:	75 02                	jne    100a7f <print_stackframe+0x10c>
  100a7d:	eb 62                	jmp    100ae1 <print_stackframe+0x16e>
  100a7f:	83 7d f4 0f          	cmpl   $0xf,-0xc(%ebp)
  100a83:	75 12                	jne    100a97 <print_stackframe+0x124>
  100a85:	83 ec 08             	sub    $0x8,%esp
  100a88:	6a 10                	push   $0x10
  100a8a:	68 55 35 10 00       	push   $0x103555
  100a8f:	e8 8c f8 ff ff       	call   100320 <cprintf>
  100a94:	83 c4 10             	add    $0x10,%esp
  100a97:	8b 45 f4             	mov    -0xc(%ebp),%eax
  100a9a:	8d 50 01             	lea    0x1(%eax),%edx
  100a9d:	89 55 f4             	mov    %edx,-0xc(%ebp)
  100aa0:	8d 14 85 00 00 00 00 	lea    0x0(,%eax,4),%edx
  100aa7:	8b 45 0c             	mov    0xc(%ebp),%eax
  100aaa:	01 c2                	add    %eax,%edx
  100aac:	8b 45 08             	mov    0x8(%ebp),%eax
  100aaf:	89 02                	mov    %eax,(%edx)
  100ab1:	eb 03                	jmp    100ab6 <print_stackframe+0x143>
  100ab3:	ff 45 08             	incl   0x8(%ebp)
  100ab6:	8b 45 08             	mov    0x8(%ebp),%eax
  100ab9:	8a 00                	mov    (%eax),%al
  100abb:	84 c0                	test   %al,%al
  100abd:	74 1d                	je     100adc <print_stackframe+0x169>
  100abf:	8b 45 08             	mov    0x8(%ebp),%eax
  100ac2:	8a 00                	mov    (%eax),%al
  100ac4:	0f be c0             	movsbl %al,%eax
  100ac7:	83 ec 08             	sub    $0x8,%esp
  100aca:	50                   	push   %eax
  100acb:	68 50 35 10 00       	push   $0x103550
  100ad0:	e8 3f 25 00 00       	call   103014 <strchr>
  100ad5:	83 c4 10             	add    $0x10,%esp
  100ad8:	85 c0                	test   %eax,%eax
  100ada:	74 d7                	je     100ab3 <print_stackframe+0x140>
  100adc:	e9 5f ff ff ff       	jmp    100a40 <print_stackframe+0xcd>
  100ae1:	8b 45 f4             	mov    -0xc(%ebp),%eax
  100ae4:	c9                   	leave  
  100ae5:	c3                   	ret    
  100ae6:	55                   	push   %ebp
  100ae7:	89 e5                	mov    %esp,%ebp
  100ae9:	83 ec 58             	sub    $0x58,%esp
  100aec:	83 ec 08             	sub    $0x8,%esp
  100aef:	8d 45 b0             	lea    -0x50(%ebp),%eax
  100af2:	50                   	push   %eax
  100af3:	ff 75 08             	pushl  0x8(%ebp)
  100af6:	e8 38 ff ff ff       	call   100a33 <print_stackframe+0xc0>
  100afb:	83 c4 10             	add    $0x10,%esp
  100afe:	89 45 f0             	mov    %eax,-0x10(%ebp)
  100b01:	83 7d f0 00          	cmpl   $0x0,-0x10(%ebp)
  100b05:	75 0a                	jne    100b11 <print_stackframe+0x19e>
  100b07:	b8 00 00 00 00       	mov    $0x0,%eax
  100b0c:	e9 81 00 00 00       	jmp    100b92 <print_stackframe+0x21f>
  100b11:	c7 45 f4 00 00 00 00 	movl   $0x0,-0xc(%ebp)
  100b18:	eb 57                	jmp    100b71 <print_stackframe+0x1fe>
  100b1a:	8b 55 b0             	mov    -0x50(%ebp),%edx
  100b1d:	8b 4d f4             	mov    -0xc(%ebp),%ecx
  100b20:	89 c8                	mov    %ecx,%eax
  100b22:	01 c0                	add    %eax,%eax
  100b24:	01 c8                	add    %ecx,%eax
  100b26:	c1 e0 02             	shl    $0x2,%eax
  100b29:	05 00 e0 10 00       	add    $0x10e000,%eax
  100b2e:	8b 00                	mov    (%eax),%eax
  100b30:	83 ec 08             	sub    $0x8,%esp
  100b33:	52                   	push   %edx
  100b34:	50                   	push   %eax
  100b35:	e8 42 24 00 00       	call   102f7c <strcmp>
  100b3a:	83 c4 10             	add    $0x10,%esp
  100b3d:	85 c0                	test   %eax,%eax
  100b3f:	75 2d                	jne    100b6e <print_stackframe+0x1fb>
  100b41:	8b 55 f4             	mov    -0xc(%ebp),%edx
  100b44:	89 d0                	mov    %edx,%eax
  100b46:	01 c0                	add    %eax,%eax
  100b48:	01 d0                	add    %edx,%eax
  100b4a:	c1 e0 02             	shl    $0x2,%eax
  100b4d:	05 00 e0 10 00       	add    $0x10e000,%eax
  100b52:	8b 40 08             	mov    0x8(%eax),%eax
  100b55:	8b 55 f0             	mov    -0x10(%ebp),%edx
  100b58:	4a                   	dec    %edx
  100b59:	83 ec 04             	sub    $0x4,%esp
  100b5c:	ff 75 0c             	pushl  0xc(%ebp)
  100b5f:	8d 4d b0             	lea    -0x50(%ebp),%ecx
  100b62:	83 c1 04             	add    $0x4,%ecx
  100b65:	51                   	push   %ecx
  100b66:	52                   	push   %edx
  100b67:	ff d0                	call   *%eax
  100b69:	83 c4 10             	add    $0x10,%esp
  100b6c:	eb 24                	jmp    100b92 <print_stackframe+0x21f>
  100b6e:	ff 45 f4             	incl   -0xc(%ebp)
  100b71:	8b 45 f4             	mov    -0xc(%ebp),%eax
  100b74:	83 f8 02             	cmp    $0x2,%eax
  100b77:	76 a1                	jbe    100b1a <print_stackframe+0x1a7>
  100b79:	8b 45 b0             	mov    -0x50(%ebp),%eax
  100b7c:	83 ec 08             	sub    $0x8,%esp
  100b7f:	50                   	push   %eax
  100b80:	68 73 35 10 00       	push   $0x103573
  100b85:	e8 96 f7 ff ff       	call   100320 <cprintf>
  100b8a:	83 c4 10             	add    $0x10,%esp
  100b8d:	b8 00 00 00 00       	mov    $0x0,%eax
  100b92:	c9                   	leave  
  100b93:	c3                   	ret    

00100b94 <kmonitor>:
  100b94:	55                   	push   %ebp
  100b95:	89 e5                	mov    %esp,%ebp
  100b97:	83 ec 18             	sub    $0x18,%esp
  100b9a:	83 ec 0c             	sub    $0xc,%esp
  100b9d:	68 8c 35 10 00       	push   $0x10358c
  100ba2:	e8 79 f7 ff ff       	call   100320 <cprintf>
  100ba7:	83 c4 10             	add    $0x10,%esp
  100baa:	83 ec 0c             	sub    $0xc,%esp
  100bad:	68 b4 35 10 00       	push   $0x1035b4
  100bb2:	e8 69 f7 ff ff       	call   100320 <cprintf>
  100bb7:	83 c4 10             	add    $0x10,%esp
  100bba:	83 7d 08 00          	cmpl   $0x0,0x8(%ebp)
  100bbe:	74 0e                	je     100bce <kmonitor+0x3a>
  100bc0:	83 ec 0c             	sub    $0xc,%esp
  100bc3:	ff 75 08             	pushl  0x8(%ebp)
  100bc6:	e8 7d 0d 00 00       	call   101948 <print_trapframe>
  100bcb:	83 c4 10             	add    $0x10,%esp
  100bce:	83 ec 0c             	sub    $0xc,%esp
  100bd1:	68 d9 35 10 00       	push   $0x1035d9
  100bd6:	e8 38 f6 ff ff       	call   100213 <readline>
  100bdb:	83 c4 10             	add    $0x10,%esp
  100bde:	89 45 f4             	mov    %eax,-0xc(%ebp)
  100be1:	83 7d f4 00          	cmpl   $0x0,-0xc(%ebp)
  100be5:	74 17                	je     100bfe <kmonitor+0x6a>
  100be7:	83 ec 08             	sub    $0x8,%esp
  100bea:	ff 75 08             	pushl  0x8(%ebp)
  100bed:	ff 75 f4             	pushl  -0xc(%ebp)
  100bf0:	e8 f1 fe ff ff       	call   100ae6 <print_stackframe+0x173>
  100bf5:	83 c4 10             	add    $0x10,%esp
  100bf8:	85 c0                	test   %eax,%eax
  100bfa:	79 02                	jns    100bfe <kmonitor+0x6a>
  100bfc:	eb 02                	jmp    100c00 <kmonitor+0x6c>
  100bfe:	eb ce                	jmp    100bce <kmonitor+0x3a>
  100c00:	c9                   	leave  
  100c01:	c3                   	ret    

00100c02 <mon_help>:
  100c02:	55                   	push   %ebp
  100c03:	89 e5                	mov    %esp,%ebp
  100c05:	83 ec 18             	sub    $0x18,%esp
  100c08:	c7 45 f4 00 00 00 00 	movl   $0x0,-0xc(%ebp)
  100c0f:	eb 3c                	jmp    100c4d <mon_help+0x4b>
  100c11:	8b 55 f4             	mov    -0xc(%ebp),%edx
  100c14:	89 d0                	mov    %edx,%eax
  100c16:	01 c0                	add    %eax,%eax
  100c18:	01 d0                	add    %edx,%eax
  100c1a:	c1 e0 02             	shl    $0x2,%eax
  100c1d:	05 00 e0 10 00       	add    $0x10e000,%eax
  100c22:	8b 50 04             	mov    0x4(%eax),%edx
  100c25:	8b 4d f4             	mov    -0xc(%ebp),%ecx
  100c28:	89 c8                	mov    %ecx,%eax
  100c2a:	01 c0                	add    %eax,%eax
  100c2c:	01 c8                	add    %ecx,%eax
  100c2e:	c1 e0 02             	shl    $0x2,%eax
  100c31:	05 00 e0 10 00       	add    $0x10e000,%eax
  100c36:	8b 00                	mov    (%eax),%eax
  100c38:	83 ec 04             	sub    $0x4,%esp
  100c3b:	52                   	push   %edx
  100c3c:	50                   	push   %eax
  100c3d:	68 dd 35 10 00       	push   $0x1035dd
  100c42:	e8 d9 f6 ff ff       	call   100320 <cprintf>
  100c47:	83 c4 10             	add    $0x10,%esp
  100c4a:	ff 45 f4             	incl   -0xc(%ebp)
  100c4d:	8b 45 f4             	mov    -0xc(%ebp),%eax
  100c50:	83 f8 02             	cmp    $0x2,%eax
  100c53:	76 bc                	jbe    100c11 <mon_help+0xf>
  100c55:	b8 00 00 00 00       	mov    $0x0,%eax
  100c5a:	c9                   	leave  
  100c5b:	c3                   	ret    

00100c5c <mon_kerninfo>:
  100c5c:	55                   	push   %ebp
  100c5d:	89 e5                	mov    %esp,%ebp
  100c5f:	83 ec 08             	sub    $0x8,%esp
  100c62:	e8 c5 fb ff ff       	call   10082c <print_kerninfo>
  100c67:	b8 00 00 00 00       	mov    $0x0,%eax
  100c6c:	c9                   	leave  
  100c6d:	c3                   	ret    

00100c6e <mon_backtrace>:
  100c6e:	55                   	push   %ebp
  100c6f:	89 e5                	mov    %esp,%ebp
  100c71:	83 ec 08             	sub    $0x8,%esp
  100c74:	e8 fa fc ff ff       	call   100973 <print_stackframe>
  100c79:	b8 00 00 00 00       	mov    $0x0,%eax
  100c7e:	c9                   	leave  
  100c7f:	c3                   	ret    

00100c80 <__panic>:
  100c80:	55                   	push   %ebp
  100c81:	89 e5                	mov    %esp,%ebp
  100c83:	83 ec 18             	sub    $0x18,%esp
  100c86:	a1 40 ee 10 00       	mov    0x10ee40,%eax
  100c8b:	85 c0                	test   %eax,%eax
  100c8d:	74 02                	je     100c91 <__panic+0x11>
  100c8f:	eb 48                	jmp    100cd9 <__panic+0x59>
  100c91:	c7 05 40 ee 10 00 01 	movl   $0x1,0x10ee40
  100c98:	00 00 00 
  100c9b:	8d 45 14             	lea    0x14(%ebp),%eax
  100c9e:	89 45 f4             	mov    %eax,-0xc(%ebp)
  100ca1:	83 ec 04             	sub    $0x4,%esp
  100ca4:	ff 75 0c             	pushl  0xc(%ebp)
  100ca7:	ff 75 08             	pushl  0x8(%ebp)
  100caa:	68 e6 35 10 00       	push   $0x1035e6
  100caf:	e8 6c f6 ff ff       	call   100320 <cprintf>
  100cb4:	83 c4 10             	add    $0x10,%esp
  100cb7:	8b 45 f4             	mov    -0xc(%ebp),%eax
  100cba:	83 ec 08             	sub    $0x8,%esp
  100cbd:	50                   	push   %eax
  100cbe:	ff 75 10             	pushl  0x10(%ebp)
  100cc1:	e8 31 f6 ff ff       	call   1002f7 <vcprintf>
  100cc6:	83 c4 10             	add    $0x10,%esp
  100cc9:	83 ec 0c             	sub    $0xc,%esp
  100ccc:	68 02 36 10 00       	push   $0x103602
  100cd1:	e8 4a f6 ff ff       	call   100320 <cprintf>
  100cd6:	83 c4 10             	add    $0x10,%esp
  100cd9:	e8 d0 08 00 00       	call   1015ae <intr_disable>
  100cde:	83 ec 0c             	sub    $0xc,%esp
  100ce1:	6a 00                	push   $0x0
  100ce3:	e8 ac fe ff ff       	call   100b94 <kmonitor>
  100ce8:	83 c4 10             	add    $0x10,%esp
  100ceb:	eb f1                	jmp    100cde <__panic+0x5e>

00100ced <__warn>:
  100ced:	55                   	push   %ebp
  100cee:	89 e5                	mov    %esp,%ebp
  100cf0:	83 ec 18             	sub    $0x18,%esp
  100cf3:	8d 45 14             	lea    0x14(%ebp),%eax
  100cf6:	89 45 f4             	mov    %eax,-0xc(%ebp)
  100cf9:	83 ec 04             	sub    $0x4,%esp
  100cfc:	ff 75 0c             	pushl  0xc(%ebp)
  100cff:	ff 75 08             	pushl  0x8(%ebp)
  100d02:	68 04 36 10 00       	push   $0x103604
  100d07:	e8 14 f6 ff ff       	call   100320 <cprintf>
  100d0c:	83 c4 10             	add    $0x10,%esp
  100d0f:	8b 45 f4             	mov    -0xc(%ebp),%eax
  100d12:	83 ec 08             	sub    $0x8,%esp
  100d15:	50                   	push   %eax
  100d16:	ff 75 10             	pushl  0x10(%ebp)
  100d19:	e8 d9 f5 ff ff       	call   1002f7 <vcprintf>
  100d1e:	83 c4 10             	add    $0x10,%esp
  100d21:	83 ec 0c             	sub    $0xc,%esp
  100d24:	68 02 36 10 00       	push   $0x103602
  100d29:	e8 f2 f5 ff ff       	call   100320 <cprintf>
  100d2e:	83 c4 10             	add    $0x10,%esp
  100d31:	c9                   	leave  
  100d32:	c3                   	ret    

00100d33 <is_kernel_panic>:
  100d33:	55                   	push   %ebp
  100d34:	89 e5                	mov    %esp,%ebp
  100d36:	a1 40 ee 10 00       	mov    0x10ee40,%eax
  100d3b:	5d                   	pop    %ebp
  100d3c:	c3                   	ret    

00100d3d <clock_init>:
  100d3d:	55                   	push   %ebp
  100d3e:	89 e5                	mov    %esp,%ebp
  100d40:	83 ec 18             	sub    $0x18,%esp
  100d43:	66 c7 45 f6 43 00    	movw   $0x43,-0xa(%ebp)
  100d49:	c6 45 f5 34          	movb   $0x34,-0xb(%ebp)
  100d4d:	8a 45 f5             	mov    -0xb(%ebp),%al
  100d50:	66 8b 55 f6          	mov    -0xa(%ebp),%dx
  100d54:	ee                   	out    %al,(%dx)
  100d55:	66 c7 45 f2 40 00    	movw   $0x40,-0xe(%ebp)
  100d5b:	c6 45 f1 9c          	movb   $0x9c,-0xf(%ebp)
  100d5f:	8a 45 f1             	mov    -0xf(%ebp),%al
  100d62:	66 8b 55 f2          	mov    -0xe(%ebp),%dx
  100d66:	ee                   	out    %al,(%dx)
  100d67:	66 c7 45 ee 40 00    	movw   $0x40,-0x12(%ebp)
  100d6d:	c6 45 ed 2e          	movb   $0x2e,-0x13(%ebp)
  100d71:	8a 45 ed             	mov    -0x13(%ebp),%al
  100d74:	66 8b 55 ee          	mov    -0x12(%ebp),%dx
  100d78:	ee                   	out    %al,(%dx)
  100d79:	c7 05 08 f9 10 00 00 	movl   $0x0,0x10f908
  100d80:	00 00 00 
  100d83:	83 ec 0c             	sub    $0xc,%esp
  100d86:	68 22 36 10 00       	push   $0x103622
  100d8b:	e8 90 f5 ff ff       	call   100320 <cprintf>
  100d90:	83 c4 10             	add    $0x10,%esp
  100d93:	83 ec 0c             	sub    $0xc,%esp
  100d96:	6a 00                	push   $0x0
  100d98:	e8 6a 08 00 00       	call   101607 <pic_enable>
  100d9d:	83 c4 10             	add    $0x10,%esp
  100da0:	c9                   	leave  
  100da1:	c3                   	ret    
  100da2:	55                   	push   %ebp
  100da3:	89 e5                	mov    %esp,%ebp
  100da5:	83 ec 10             	sub    $0x10,%esp
  100da8:	66 c7 45 fe 84 00    	movw   $0x84,-0x2(%ebp)
  100dae:	66 8b 45 fe          	mov    -0x2(%ebp),%ax
  100db2:	89 c2                	mov    %eax,%edx
  100db4:	ec                   	in     (%dx),%al
  100db5:	88 45 fd             	mov    %al,-0x3(%ebp)
  100db8:	66 c7 45 fa 84 00    	movw   $0x84,-0x6(%ebp)
  100dbe:	66 8b 45 fa          	mov    -0x6(%ebp),%ax
  100dc2:	89 c2                	mov    %eax,%edx
  100dc4:	ec                   	in     (%dx),%al
  100dc5:	88 45 f9             	mov    %al,-0x7(%ebp)
  100dc8:	66 c7 45 f6 84 00    	movw   $0x84,-0xa(%ebp)
  100dce:	66 8b 45 f6          	mov    -0xa(%ebp),%ax
  100dd2:	89 c2                	mov    %eax,%edx
  100dd4:	ec                   	in     (%dx),%al
  100dd5:	88 45 f5             	mov    %al,-0xb(%ebp)
  100dd8:	66 c7 45 f2 84 00    	movw   $0x84,-0xe(%ebp)
  100dde:	66 8b 45 f2          	mov    -0xe(%ebp),%ax
  100de2:	89 c2                	mov    %eax,%edx
  100de4:	ec                   	in     (%dx),%al
  100de5:	88 45 f1             	mov    %al,-0xf(%ebp)
  100de8:	c9                   	leave  
  100de9:	c3                   	ret    
  100dea:	55                   	push   %ebp
  100deb:	89 e5                	mov    %esp,%ebp
  100ded:	83 ec 20             	sub    $0x20,%esp
  100df0:	c7 45 fc 00 80 0b 00 	movl   $0xb8000,-0x4(%ebp)
  100df7:	8b 45 fc             	mov    -0x4(%ebp),%eax
  100dfa:	66 8b 00             	mov    (%eax),%ax
  100dfd:	66 89 45 fa          	mov    %ax,-0x6(%ebp)
  100e01:	8b 45 fc             	mov    -0x4(%ebp),%eax
  100e04:	66 c7 00 5a a5       	movw   $0xa55a,(%eax)
  100e09:	8b 45 fc             	mov    -0x4(%ebp),%eax
  100e0c:	66 8b 00             	mov    (%eax),%ax
  100e0f:	66 3d 5a a5          	cmp    $0xa55a,%ax
  100e13:	74 12                	je     100e27 <clock_init+0xea>
  100e15:	c7 45 fc 00 00 0b 00 	movl   $0xb0000,-0x4(%ebp)
  100e1c:	66 c7 05 66 ee 10 00 	movw   $0x3b4,0x10ee66
  100e23:	b4 03 
  100e25:	eb 13                	jmp    100e3a <clock_init+0xfd>
  100e27:	8b 55 fc             	mov    -0x4(%ebp),%edx
  100e2a:	66 8b 45 fa          	mov    -0x6(%ebp),%ax
  100e2e:	66 89 02             	mov    %ax,(%edx)
  100e31:	66 c7 05 66 ee 10 00 	movw   $0x3d4,0x10ee66
  100e38:	d4 03 
  100e3a:	66 a1 66 ee 10 00    	mov    0x10ee66,%ax
  100e40:	0f b7 c0             	movzwl %ax,%eax
  100e43:	66 89 45 f2          	mov    %ax,-0xe(%ebp)
  100e47:	c6 45 f1 0e          	movb   $0xe,-0xf(%ebp)
  100e4b:	8a 45 f1             	mov    -0xf(%ebp),%al
  100e4e:	66 8b 55 f2          	mov    -0xe(%ebp),%dx
  100e52:	ee                   	out    %al,(%dx)
  100e53:	66 a1 66 ee 10 00    	mov    0x10ee66,%ax
  100e59:	40                   	inc    %eax
  100e5a:	0f b7 c0             	movzwl %ax,%eax
  100e5d:	66 89 45 ee          	mov    %ax,-0x12(%ebp)
  100e61:	66 8b 45 ee          	mov    -0x12(%ebp),%ax
  100e65:	89 c2                	mov    %eax,%edx
  100e67:	ec                   	in     (%dx),%al
  100e68:	88 45 ed             	mov    %al,-0x13(%ebp)
  100e6b:	8a 45 ed             	mov    -0x13(%ebp),%al
  100e6e:	0f b6 c0             	movzbl %al,%eax
  100e71:	c1 e0 08             	shl    $0x8,%eax
  100e74:	89 45 f4             	mov    %eax,-0xc(%ebp)
  100e77:	66 a1 66 ee 10 00    	mov    0x10ee66,%ax
  100e7d:	0f b7 c0             	movzwl %ax,%eax
  100e80:	66 89 45 ea          	mov    %ax,-0x16(%ebp)
  100e84:	c6 45 e9 0f          	movb   $0xf,-0x17(%ebp)
  100e88:	8a 45 e9             	mov    -0x17(%ebp),%al
  100e8b:	66 8b 55 ea          	mov    -0x16(%ebp),%dx
  100e8f:	ee                   	out    %al,(%dx)
  100e90:	66 a1 66 ee 10 00    	mov    0x10ee66,%ax
  100e96:	40                   	inc    %eax
  100e97:	0f b7 c0             	movzwl %ax,%eax
  100e9a:	66 89 45 e6          	mov    %ax,-0x1a(%ebp)
  100e9e:	66 8b 45 e6          	mov    -0x1a(%ebp),%ax
  100ea2:	89 c2                	mov    %eax,%edx
  100ea4:	ec                   	in     (%dx),%al
  100ea5:	88 45 e5             	mov    %al,-0x1b(%ebp)
  100ea8:	8a 45 e5             	mov    -0x1b(%ebp),%al
  100eab:	0f b6 c0             	movzbl %al,%eax
  100eae:	09 45 f4             	or     %eax,-0xc(%ebp)
  100eb1:	8b 45 fc             	mov    -0x4(%ebp),%eax
  100eb4:	a3 60 ee 10 00       	mov    %eax,0x10ee60
  100eb9:	8b 45 f4             	mov    -0xc(%ebp),%eax
  100ebc:	66 a3 64 ee 10 00    	mov    %ax,0x10ee64
  100ec2:	c9                   	leave  
  100ec3:	c3                   	ret    
  100ec4:	55                   	push   %ebp
  100ec5:	89 e5                	mov    %esp,%ebp
  100ec7:	83 ec 38             	sub    $0x38,%esp
  100eca:	66 c7 45 f6 fa 03    	movw   $0x3fa,-0xa(%ebp)
  100ed0:	c6 45 f5 00          	movb   $0x0,-0xb(%ebp)
  100ed4:	8a 45 f5             	mov    -0xb(%ebp),%al
  100ed7:	66 8b 55 f6          	mov    -0xa(%ebp),%dx
  100edb:	ee                   	out    %al,(%dx)
  100edc:	66 c7 45 f2 fb 03    	movw   $0x3fb,-0xe(%ebp)
  100ee2:	c6 45 f1 80          	movb   $0x80,-0xf(%ebp)
  100ee6:	8a 45 f1             	mov    -0xf(%ebp),%al
  100ee9:	66 8b 55 f2          	mov    -0xe(%ebp),%dx
  100eed:	ee                   	out    %al,(%dx)
  100eee:	66 c7 45 ee f8 03    	movw   $0x3f8,-0x12(%ebp)
  100ef4:	c6 45 ed 0c          	movb   $0xc,-0x13(%ebp)
  100ef8:	8a 45 ed             	mov    -0x13(%ebp),%al
  100efb:	66 8b 55 ee          	mov    -0x12(%ebp),%dx
  100eff:	ee                   	out    %al,(%dx)
  100f00:	66 c7 45 ea f9 03    	movw   $0x3f9,-0x16(%ebp)
  100f06:	c6 45 e9 00          	movb   $0x0,-0x17(%ebp)
  100f0a:	8a 45 e9             	mov    -0x17(%ebp),%al
  100f0d:	66 8b 55 ea          	mov    -0x16(%ebp),%dx
  100f11:	ee                   	out    %al,(%dx)
  100f12:	66 c7 45 e6 fb 03    	movw   $0x3fb,-0x1a(%ebp)
  100f18:	c6 45 e5 03          	movb   $0x3,-0x1b(%ebp)
  100f1c:	8a 45 e5             	mov    -0x1b(%ebp),%al
  100f1f:	66 8b 55 e6          	mov    -0x1a(%ebp),%dx
  100f23:	ee                   	out    %al,(%dx)
  100f24:	66 c7 45 e2 fc 03    	movw   $0x3fc,-0x1e(%ebp)
  100f2a:	c6 45 e1 00          	movb   $0x0,-0x1f(%ebp)
  100f2e:	8a 45 e1             	mov    -0x1f(%ebp),%al
  100f31:	66 8b 55 e2          	mov    -0x1e(%ebp),%dx
  100f35:	ee                   	out    %al,(%dx)
  100f36:	66 c7 45 de f9 03    	movw   $0x3f9,-0x22(%ebp)
  100f3c:	c6 45 dd 01          	movb   $0x1,-0x23(%ebp)
  100f40:	8a 45 dd             	mov    -0x23(%ebp),%al
  100f43:	66 8b 55 de          	mov    -0x22(%ebp),%dx
  100f47:	ee                   	out    %al,(%dx)
  100f48:	66 c7 45 da fd 03    	movw   $0x3fd,-0x26(%ebp)
  100f4e:	66 8b 45 da          	mov    -0x26(%ebp),%ax
  100f52:	89 c2                	mov    %eax,%edx
  100f54:	ec                   	in     (%dx),%al
  100f55:	88 45 d9             	mov    %al,-0x27(%ebp)
  100f58:	8a 45 d9             	mov    -0x27(%ebp),%al
  100f5b:	3c ff                	cmp    $0xff,%al
  100f5d:	0f 95 c0             	setne  %al
  100f60:	0f b6 c0             	movzbl %al,%eax
  100f63:	a3 68 ee 10 00       	mov    %eax,0x10ee68
  100f68:	66 c7 45 d6 fa 03    	movw   $0x3fa,-0x2a(%ebp)
  100f6e:	66 8b 45 d6          	mov    -0x2a(%ebp),%ax
  100f72:	89 c2                	mov    %eax,%edx
  100f74:	ec                   	in     (%dx),%al
  100f75:	88 45 d5             	mov    %al,-0x2b(%ebp)
  100f78:	66 c7 45 d2 f8 03    	movw   $0x3f8,-0x2e(%ebp)
  100f7e:	66 8b 45 d2          	mov    -0x2e(%ebp),%ax
  100f82:	89 c2                	mov    %eax,%edx
  100f84:	ec                   	in     (%dx),%al
  100f85:	88 45 d1             	mov    %al,-0x2f(%ebp)
  100f88:	a1 68 ee 10 00       	mov    0x10ee68,%eax
  100f8d:	85 c0                	test   %eax,%eax
  100f8f:	74 0d                	je     100f9e <clock_init+0x261>
  100f91:	83 ec 0c             	sub    $0xc,%esp
  100f94:	6a 04                	push   $0x4
  100f96:	e8 6c 06 00 00       	call   101607 <pic_enable>
  100f9b:	83 c4 10             	add    $0x10,%esp
  100f9e:	c9                   	leave  
  100f9f:	c3                   	ret    
  100fa0:	55                   	push   %ebp
  100fa1:	89 e5                	mov    %esp,%ebp
  100fa3:	83 ec 20             	sub    $0x20,%esp
  100fa6:	c7 45 fc 00 00 00 00 	movl   $0x0,-0x4(%ebp)
  100fad:	eb 08                	jmp    100fb7 <clock_init+0x27a>
  100faf:	e8 ee fd ff ff       	call   100da2 <clock_init+0x65>
  100fb4:	ff 45 fc             	incl   -0x4(%ebp)
  100fb7:	66 c7 45 fa 79 03    	movw   $0x379,-0x6(%ebp)
  100fbd:	66 8b 45 fa          	mov    -0x6(%ebp),%ax
  100fc1:	89 c2                	mov    %eax,%edx
  100fc3:	ec                   	in     (%dx),%al
  100fc4:	88 45 f9             	mov    %al,-0x7(%ebp)
  100fc7:	8a 45 f9             	mov    -0x7(%ebp),%al
  100fca:	84 c0                	test   %al,%al
  100fcc:	78 09                	js     100fd7 <clock_init+0x29a>
  100fce:	81 7d fc ff 31 00 00 	cmpl   $0x31ff,-0x4(%ebp)
  100fd5:	7e d8                	jle    100faf <clock_init+0x272>
  100fd7:	8b 45 08             	mov    0x8(%ebp),%eax
  100fda:	0f b6 c0             	movzbl %al,%eax
  100fdd:	66 c7 45 f6 78 03    	movw   $0x378,-0xa(%ebp)
  100fe3:	88 45 f5             	mov    %al,-0xb(%ebp)
  100fe6:	8a 45 f5             	mov    -0xb(%ebp),%al
  100fe9:	66 8b 55 f6          	mov    -0xa(%ebp),%dx
  100fed:	ee                   	out    %al,(%dx)
  100fee:	66 c7 45 f2 7a 03    	movw   $0x37a,-0xe(%ebp)
  100ff4:	c6 45 f1 0d          	movb   $0xd,-0xf(%ebp)
  100ff8:	8a 45 f1             	mov    -0xf(%ebp),%al
  100ffb:	66 8b 55 f2          	mov    -0xe(%ebp),%dx
  100fff:	ee                   	out    %al,(%dx)
  101000:	66 c7 45 ee 7a 03    	movw   $0x37a,-0x12(%ebp)
  101006:	c6 45 ed 08          	movb   $0x8,-0x13(%ebp)
  10100a:	8a 45 ed             	mov    -0x13(%ebp),%al
  10100d:	66 8b 55 ee          	mov    -0x12(%ebp),%dx
  101011:	ee                   	out    %al,(%dx)
  101012:	c9                   	leave  
  101013:	c3                   	ret    
  101014:	55                   	push   %ebp
  101015:	89 e5                	mov    %esp,%ebp
  101017:	83 7d 08 08          	cmpl   $0x8,0x8(%ebp)
  10101b:	74 0d                	je     10102a <clock_init+0x2ed>
  10101d:	ff 75 08             	pushl  0x8(%ebp)
  101020:	e8 7b ff ff ff       	call   100fa0 <clock_init+0x263>
  101025:	83 c4 04             	add    $0x4,%esp
  101028:	eb 1e                	jmp    101048 <clock_init+0x30b>
  10102a:	6a 08                	push   $0x8
  10102c:	e8 6f ff ff ff       	call   100fa0 <clock_init+0x263>
  101031:	83 c4 04             	add    $0x4,%esp
  101034:	6a 20                	push   $0x20
  101036:	e8 65 ff ff ff       	call   100fa0 <clock_init+0x263>
  10103b:	83 c4 04             	add    $0x4,%esp
  10103e:	6a 08                	push   $0x8
  101040:	e8 5b ff ff ff       	call   100fa0 <clock_init+0x263>
  101045:	83 c4 04             	add    $0x4,%esp
  101048:	c9                   	leave  
  101049:	c3                   	ret    
  10104a:	55                   	push   %ebp
  10104b:	89 e5                	mov    %esp,%ebp
  10104d:	53                   	push   %ebx
  10104e:	83 ec 24             	sub    $0x24,%esp
  101051:	8b 45 08             	mov    0x8(%ebp),%eax
  101054:	b0 00                	mov    $0x0,%al
  101056:	85 c0                	test   %eax,%eax
  101058:	75 07                	jne    101061 <clock_init+0x324>
  10105a:	81 4d 08 00 07 00 00 	orl    $0x700,0x8(%ebp)
  101061:	8b 45 08             	mov    0x8(%ebp),%eax
  101064:	0f b6 c0             	movzbl %al,%eax
  101067:	83 f8 0a             	cmp    $0xa,%eax
  10106a:	74 44                	je     1010b0 <clock_init+0x373>
  10106c:	83 f8 0d             	cmp    $0xd,%eax
  10106f:	74 4e                	je     1010bf <clock_init+0x382>
  101071:	83 f8 08             	cmp    $0x8,%eax
  101074:	75 71                	jne    1010e7 <clock_init+0x3aa>
  101076:	66 a1 64 ee 10 00    	mov    0x10ee64,%ax
  10107c:	66 85 c0             	test   %ax,%ax
  10107f:	74 2d                	je     1010ae <clock_init+0x371>
  101081:	66 a1 64 ee 10 00    	mov    0x10ee64,%ax
  101087:	48                   	dec    %eax
  101088:	66 a3 64 ee 10 00    	mov    %ax,0x10ee64
  10108e:	8b 15 60 ee 10 00    	mov    0x10ee60,%edx
  101094:	66 a1 64 ee 10 00    	mov    0x10ee64,%ax
  10109a:	0f b7 c0             	movzwl %ax,%eax
  10109d:	01 c0                	add    %eax,%eax
  10109f:	01 c2                	add    %eax,%edx
  1010a1:	8b 45 08             	mov    0x8(%ebp),%eax
  1010a4:	b0 00                	mov    $0x0,%al
  1010a6:	83 c8 20             	or     $0x20,%eax
  1010a9:	66 89 02             	mov    %ax,(%edx)
  1010ac:	eb 5e                	jmp    10110c <clock_init+0x3cf>
  1010ae:	eb 5c                	jmp    10110c <clock_init+0x3cf>
  1010b0:	66 a1 64 ee 10 00    	mov    0x10ee64,%ax
  1010b6:	83 c0 50             	add    $0x50,%eax
  1010b9:	66 a3 64 ee 10 00    	mov    %ax,0x10ee64
  1010bf:	66 8b 0d 64 ee 10 00 	mov    0x10ee64,%cx
  1010c6:	66 a1 64 ee 10 00    	mov    0x10ee64,%ax
  1010cc:	bb 50 00 00 00       	mov    $0x50,%ebx
  1010d1:	ba 00 00 00 00       	mov    $0x0,%edx
  1010d6:	66 f7 f3             	div    %bx
  1010d9:	89 d0                	mov    %edx,%eax
  1010db:	29 c1                	sub    %eax,%ecx
  1010dd:	89 c8                	mov    %ecx,%eax
  1010df:	66 a3 64 ee 10 00    	mov    %ax,0x10ee64
  1010e5:	eb 25                	jmp    10110c <clock_init+0x3cf>
  1010e7:	8b 0d 60 ee 10 00    	mov    0x10ee60,%ecx
  1010ed:	66 a1 64 ee 10 00    	mov    0x10ee64,%ax
  1010f3:	8d 50 01             	lea    0x1(%eax),%edx
  1010f6:	66 89 15 64 ee 10 00 	mov    %dx,0x10ee64
  1010fd:	0f b7 c0             	movzwl %ax,%eax
  101100:	01 c0                	add    %eax,%eax
  101102:	8d 14 01             	lea    (%ecx,%eax,1),%edx
  101105:	8b 45 08             	mov    0x8(%ebp),%eax
  101108:	66 89 02             	mov    %ax,(%edx)
  10110b:	90                   	nop
  10110c:	66 a1 64 ee 10 00    	mov    0x10ee64,%ax
  101112:	66 3d cf 07          	cmp    $0x7cf,%ax
  101116:	76 58                	jbe    101170 <clock_init+0x433>
  101118:	a1 60 ee 10 00       	mov    0x10ee60,%eax
  10111d:	8d 90 a0 00 00 00    	lea    0xa0(%eax),%edx
  101123:	a1 60 ee 10 00       	mov    0x10ee60,%eax
  101128:	83 ec 04             	sub    $0x4,%esp
  10112b:	68 00 0f 00 00       	push   $0xf00
  101130:	52                   	push   %edx
  101131:	50                   	push   %eax
  101132:	e8 be 20 00 00       	call   1031f5 <memmove>
  101137:	83 c4 10             	add    $0x10,%esp
  10113a:	c7 45 f4 80 07 00 00 	movl   $0x780,-0xc(%ebp)
  101141:	eb 15                	jmp    101158 <clock_init+0x41b>
  101143:	8b 15 60 ee 10 00    	mov    0x10ee60,%edx
  101149:	8b 45 f4             	mov    -0xc(%ebp),%eax
  10114c:	01 c0                	add    %eax,%eax
  10114e:	01 d0                	add    %edx,%eax
  101150:	66 c7 00 20 07       	movw   $0x720,(%eax)
  101155:	ff 45 f4             	incl   -0xc(%ebp)
  101158:	81 7d f4 cf 07 00 00 	cmpl   $0x7cf,-0xc(%ebp)
  10115f:	7e e2                	jle    101143 <clock_init+0x406>
  101161:	66 a1 64 ee 10 00    	mov    0x10ee64,%ax
  101167:	83 e8 50             	sub    $0x50,%eax
  10116a:	66 a3 64 ee 10 00    	mov    %ax,0x10ee64
  101170:	66 a1 66 ee 10 00    	mov    0x10ee66,%ax
  101176:	0f b7 c0             	movzwl %ax,%eax
  101179:	66 89 45 f2          	mov    %ax,-0xe(%ebp)
  10117d:	c6 45 f1 0e          	movb   $0xe,-0xf(%ebp)
  101181:	8a 45 f1             	mov    -0xf(%ebp),%al
  101184:	66 8b 55 f2          	mov    -0xe(%ebp),%dx
  101188:	ee                   	out    %al,(%dx)
  101189:	66 a1 64 ee 10 00    	mov    0x10ee64,%ax
  10118f:	66 c1 e8 08          	shr    $0x8,%ax
  101193:	0f b6 d0             	movzbl %al,%edx
  101196:	66 a1 66 ee 10 00    	mov    0x10ee66,%ax
  10119c:	40                   	inc    %eax
  10119d:	0f b7 c0             	movzwl %ax,%eax
  1011a0:	66 89 45 ee          	mov    %ax,-0x12(%ebp)
  1011a4:	88 55 ed             	mov    %dl,-0x13(%ebp)
  1011a7:	8a 45 ed             	mov    -0x13(%ebp),%al
  1011aa:	66 8b 55 ee          	mov    -0x12(%ebp),%dx
  1011ae:	ee                   	out    %al,(%dx)
  1011af:	66 a1 66 ee 10 00    	mov    0x10ee66,%ax
  1011b5:	0f b7 c0             	movzwl %ax,%eax
  1011b8:	66 89 45 ea          	mov    %ax,-0x16(%ebp)
  1011bc:	c6 45 e9 0f          	movb   $0xf,-0x17(%ebp)
  1011c0:	8a 45 e9             	mov    -0x17(%ebp),%al
  1011c3:	66 8b 55 ea          	mov    -0x16(%ebp),%dx
  1011c7:	ee                   	out    %al,(%dx)
  1011c8:	66 a1 64 ee 10 00    	mov    0x10ee64,%ax
  1011ce:	0f b6 d0             	movzbl %al,%edx
  1011d1:	66 a1 66 ee 10 00    	mov    0x10ee66,%ax
  1011d7:	40                   	inc    %eax
  1011d8:	0f b7 c0             	movzwl %ax,%eax
  1011db:	66 89 45 e6          	mov    %ax,-0x1a(%ebp)
  1011df:	88 55 e5             	mov    %dl,-0x1b(%ebp)
  1011e2:	8a 45 e5             	mov    -0x1b(%ebp),%al
  1011e5:	66 8b 55 e6          	mov    -0x1a(%ebp),%dx
  1011e9:	ee                   	out    %al,(%dx)
  1011ea:	8b 5d fc             	mov    -0x4(%ebp),%ebx
  1011ed:	c9                   	leave  
  1011ee:	c3                   	ret    
  1011ef:	55                   	push   %ebp
  1011f0:	89 e5                	mov    %esp,%ebp
  1011f2:	83 ec 10             	sub    $0x10,%esp
  1011f5:	c7 45 fc 00 00 00 00 	movl   $0x0,-0x4(%ebp)
  1011fc:	eb 08                	jmp    101206 <clock_init+0x4c9>
  1011fe:	e8 9f fb ff ff       	call   100da2 <clock_init+0x65>
  101203:	ff 45 fc             	incl   -0x4(%ebp)
  101206:	66 c7 45 fa fd 03    	movw   $0x3fd,-0x6(%ebp)
  10120c:	66 8b 45 fa          	mov    -0x6(%ebp),%ax
  101210:	89 c2                	mov    %eax,%edx
  101212:	ec                   	in     (%dx),%al
  101213:	88 45 f9             	mov    %al,-0x7(%ebp)
  101216:	8a 45 f9             	mov    -0x7(%ebp),%al
  101219:	0f b6 c0             	movzbl %al,%eax
  10121c:	83 e0 20             	and    $0x20,%eax
  10121f:	85 c0                	test   %eax,%eax
  101221:	75 09                	jne    10122c <clock_init+0x4ef>
  101223:	81 7d fc ff 31 00 00 	cmpl   $0x31ff,-0x4(%ebp)
  10122a:	7e d2                	jle    1011fe <clock_init+0x4c1>
  10122c:	8b 45 08             	mov    0x8(%ebp),%eax
  10122f:	0f b6 c0             	movzbl %al,%eax
  101232:	66 c7 45 f6 f8 03    	movw   $0x3f8,-0xa(%ebp)
  101238:	88 45 f5             	mov    %al,-0xb(%ebp)
  10123b:	8a 45 f5             	mov    -0xb(%ebp),%al
  10123e:	66 8b 55 f6          	mov    -0xa(%ebp),%dx
  101242:	ee                   	out    %al,(%dx)
  101243:	c9                   	leave  
  101244:	c3                   	ret    
  101245:	55                   	push   %ebp
  101246:	89 e5                	mov    %esp,%ebp
  101248:	83 7d 08 08          	cmpl   $0x8,0x8(%ebp)
  10124c:	74 0d                	je     10125b <clock_init+0x51e>
  10124e:	ff 75 08             	pushl  0x8(%ebp)
  101251:	e8 99 ff ff ff       	call   1011ef <clock_init+0x4b2>
  101256:	83 c4 04             	add    $0x4,%esp
  101259:	eb 1e                	jmp    101279 <clock_init+0x53c>
  10125b:	6a 08                	push   $0x8
  10125d:	e8 8d ff ff ff       	call   1011ef <clock_init+0x4b2>
  101262:	83 c4 04             	add    $0x4,%esp
  101265:	6a 20                	push   $0x20
  101267:	e8 83 ff ff ff       	call   1011ef <clock_init+0x4b2>
  10126c:	83 c4 04             	add    $0x4,%esp
  10126f:	6a 08                	push   $0x8
  101271:	e8 79 ff ff ff       	call   1011ef <clock_init+0x4b2>
  101276:	83 c4 04             	add    $0x4,%esp
  101279:	c9                   	leave  
  10127a:	c3                   	ret    
  10127b:	55                   	push   %ebp
  10127c:	89 e5                	mov    %esp,%ebp
  10127e:	83 ec 18             	sub    $0x18,%esp
  101281:	eb 33                	jmp    1012b6 <clock_init+0x579>
  101283:	83 7d f4 00          	cmpl   $0x0,-0xc(%ebp)
  101287:	74 2d                	je     1012b6 <clock_init+0x579>
  101289:	a1 84 f0 10 00       	mov    0x10f084,%eax
  10128e:	8d 50 01             	lea    0x1(%eax),%edx
  101291:	89 15 84 f0 10 00    	mov    %edx,0x10f084
  101297:	8b 55 f4             	mov    -0xc(%ebp),%edx
  10129a:	88 90 80 ee 10 00    	mov    %dl,0x10ee80(%eax)
  1012a0:	a1 84 f0 10 00       	mov    0x10f084,%eax
  1012a5:	3d 00 02 00 00       	cmp    $0x200,%eax
  1012aa:	75 0a                	jne    1012b6 <clock_init+0x579>
  1012ac:	c7 05 84 f0 10 00 00 	movl   $0x0,0x10f084
  1012b3:	00 00 00 
  1012b6:	8b 45 08             	mov    0x8(%ebp),%eax
  1012b9:	ff d0                	call   *%eax
  1012bb:	89 45 f4             	mov    %eax,-0xc(%ebp)
  1012be:	83 7d f4 ff          	cmpl   $0xffffffff,-0xc(%ebp)
  1012c2:	75 bf                	jne    101283 <clock_init+0x546>
  1012c4:	c9                   	leave  
  1012c5:	c3                   	ret    
  1012c6:	55                   	push   %ebp
  1012c7:	89 e5                	mov    %esp,%ebp
  1012c9:	83 ec 10             	sub    $0x10,%esp
  1012cc:	66 c7 45 fa fd 03    	movw   $0x3fd,-0x6(%ebp)
  1012d2:	66 8b 45 fa          	mov    -0x6(%ebp),%ax
  1012d6:	89 c2                	mov    %eax,%edx
  1012d8:	ec                   	in     (%dx),%al
  1012d9:	88 45 f9             	mov    %al,-0x7(%ebp)
  1012dc:	8a 45 f9             	mov    -0x7(%ebp),%al
  1012df:	0f b6 c0             	movzbl %al,%eax
  1012e2:	83 e0 01             	and    $0x1,%eax
  1012e5:	85 c0                	test   %eax,%eax
  1012e7:	75 07                	jne    1012f0 <clock_init+0x5b3>
  1012e9:	b8 ff ff ff ff       	mov    $0xffffffff,%eax
  1012ee:	eb 29                	jmp    101319 <clock_init+0x5dc>
  1012f0:	66 c7 45 f6 f8 03    	movw   $0x3f8,-0xa(%ebp)
  1012f6:	66 8b 45 f6          	mov    -0xa(%ebp),%ax
  1012fa:	89 c2                	mov    %eax,%edx
  1012fc:	ec                   	in     (%dx),%al
  1012fd:	88 45 f5             	mov    %al,-0xb(%ebp)
  101300:	8a 45 f5             	mov    -0xb(%ebp),%al
  101303:	0f b6 c0             	movzbl %al,%eax
  101306:	89 45 fc             	mov    %eax,-0x4(%ebp)
  101309:	83 7d fc 7f          	cmpl   $0x7f,-0x4(%ebp)
  10130d:	75 07                	jne    101316 <clock_init+0x5d9>
  10130f:	c7 45 fc 08 00 00 00 	movl   $0x8,-0x4(%ebp)
  101316:	8b 45 fc             	mov    -0x4(%ebp),%eax
  101319:	c9                   	leave  
  10131a:	c3                   	ret    

0010131b <serial_intr>:
  10131b:	55                   	push   %ebp
  10131c:	89 e5                	mov    %esp,%ebp
  10131e:	83 ec 08             	sub    $0x8,%esp
  101321:	a1 68 ee 10 00       	mov    0x10ee68,%eax
  101326:	85 c0                	test   %eax,%eax
  101328:	74 10                	je     10133a <serial_intr+0x1f>
  10132a:	83 ec 0c             	sub    $0xc,%esp
  10132d:	68 97 12 10 00       	push   $0x101297
  101332:	e8 44 ff ff ff       	call   10127b <clock_init+0x53e>
  101337:	83 c4 10             	add    $0x10,%esp
  10133a:	c9                   	leave  
  10133b:	c3                   	ret    
  10133c:	55                   	push   %ebp
  10133d:	89 e5                	mov    %esp,%ebp
  10133f:	83 ec 28             	sub    $0x28,%esp
  101342:	66 c7 45 f0 64 00    	movw   $0x64,-0x10(%ebp)
  101348:	8b 45 f0             	mov    -0x10(%ebp),%eax
  10134b:	89 c2                	mov    %eax,%edx
  10134d:	ec                   	in     (%dx),%al
  10134e:	88 45 ef             	mov    %al,-0x11(%ebp)
  101351:	8a 45 ef             	mov    -0x11(%ebp),%al
  101354:	0f b6 c0             	movzbl %al,%eax
  101357:	83 e0 01             	and    $0x1,%eax
  10135a:	85 c0                	test   %eax,%eax
  10135c:	75 0a                	jne    101368 <serial_intr+0x4d>
  10135e:	b8 ff ff ff ff       	mov    $0xffffffff,%eax
  101363:	e9 52 01 00 00       	jmp    1014ba <serial_intr+0x19f>
  101368:	66 c7 45 ec 60 00    	movw   $0x60,-0x14(%ebp)
  10136e:	8b 45 ec             	mov    -0x14(%ebp),%eax
  101371:	89 c2                	mov    %eax,%edx
  101373:	ec                   	in     (%dx),%al
  101374:	88 45 eb             	mov    %al,-0x15(%ebp)
  101377:	8a 45 eb             	mov    -0x15(%ebp),%al
  10137a:	88 45 f3             	mov    %al,-0xd(%ebp)
  10137d:	80 7d f3 e0          	cmpb   $0xe0,-0xd(%ebp)
  101381:	75 17                	jne    10139a <serial_intr+0x7f>
  101383:	a1 88 f0 10 00       	mov    0x10f088,%eax
  101388:	83 c8 40             	or     $0x40,%eax
  10138b:	a3 88 f0 10 00       	mov    %eax,0x10f088
  101390:	b8 00 00 00 00       	mov    $0x0,%eax
  101395:	e9 20 01 00 00       	jmp    1014ba <serial_intr+0x19f>
  10139a:	8a 45 f3             	mov    -0xd(%ebp),%al
  10139d:	84 c0                	test   %al,%al
  10139f:	79 44                	jns    1013e5 <serial_intr+0xca>
  1013a1:	a1 88 f0 10 00       	mov    0x10f088,%eax
  1013a6:	83 e0 40             	and    $0x40,%eax
  1013a9:	85 c0                	test   %eax,%eax
  1013ab:	75 08                	jne    1013b5 <serial_intr+0x9a>
  1013ad:	8a 45 f3             	mov    -0xd(%ebp),%al
  1013b0:	83 e0 7f             	and    $0x7f,%eax
  1013b3:	eb 03                	jmp    1013b8 <serial_intr+0x9d>
  1013b5:	8a 45 f3             	mov    -0xd(%ebp),%al
  1013b8:	88 45 f3             	mov    %al,-0xd(%ebp)
  1013bb:	0f b6 45 f3          	movzbl -0xd(%ebp),%eax
  1013bf:	8a 80 40 e0 10 00    	mov    0x10e040(%eax),%al
  1013c5:	83 c8 40             	or     $0x40,%eax
  1013c8:	0f b6 c0             	movzbl %al,%eax
  1013cb:	f7 d0                	not    %eax
  1013cd:	89 c2                	mov    %eax,%edx
  1013cf:	a1 88 f0 10 00       	mov    0x10f088,%eax
  1013d4:	21 d0                	and    %edx,%eax
  1013d6:	a3 88 f0 10 00       	mov    %eax,0x10f088
  1013db:	b8 00 00 00 00       	mov    $0x0,%eax
  1013e0:	e9 d5 00 00 00       	jmp    1014ba <serial_intr+0x19f>
  1013e5:	a1 88 f0 10 00       	mov    0x10f088,%eax
  1013ea:	83 e0 40             	and    $0x40,%eax
  1013ed:	85 c0                	test   %eax,%eax
  1013ef:	74 11                	je     101402 <serial_intr+0xe7>
  1013f1:	80 4d f3 80          	orb    $0x80,-0xd(%ebp)
  1013f5:	a1 88 f0 10 00       	mov    0x10f088,%eax
  1013fa:	83 e0 bf             	and    $0xffffffbf,%eax
  1013fd:	a3 88 f0 10 00       	mov    %eax,0x10f088
  101402:	0f b6 45 f3          	movzbl -0xd(%ebp),%eax
  101406:	8a 80 40 e0 10 00    	mov    0x10e040(%eax),%al
  10140c:	0f b6 d0             	movzbl %al,%edx
  10140f:	a1 88 f0 10 00       	mov    0x10f088,%eax
  101414:	09 d0                	or     %edx,%eax
  101416:	a3 88 f0 10 00       	mov    %eax,0x10f088
  10141b:	0f b6 45 f3          	movzbl -0xd(%ebp),%eax
  10141f:	8a 80 40 e1 10 00    	mov    0x10e140(%eax),%al
  101425:	0f b6 d0             	movzbl %al,%edx
  101428:	a1 88 f0 10 00       	mov    0x10f088,%eax
  10142d:	31 d0                	xor    %edx,%eax
  10142f:	a3 88 f0 10 00       	mov    %eax,0x10f088
  101434:	a1 88 f0 10 00       	mov    0x10f088,%eax
  101439:	83 e0 03             	and    $0x3,%eax
  10143c:	8b 14 85 40 e5 10 00 	mov    0x10e540(,%eax,4),%edx
  101443:	0f b6 45 f3          	movzbl -0xd(%ebp),%eax
  101447:	01 d0                	add    %edx,%eax
  101449:	8a 00                	mov    (%eax),%al
  10144b:	0f b6 c0             	movzbl %al,%eax
  10144e:	89 45 f4             	mov    %eax,-0xc(%ebp)
  101451:	a1 88 f0 10 00       	mov    0x10f088,%eax
  101456:	83 e0 08             	and    $0x8,%eax
  101459:	85 c0                	test   %eax,%eax
  10145b:	74 22                	je     10147f <serial_intr+0x164>
  10145d:	83 7d f4 60          	cmpl   $0x60,-0xc(%ebp)
  101461:	7e 0c                	jle    10146f <serial_intr+0x154>
  101463:	83 7d f4 7a          	cmpl   $0x7a,-0xc(%ebp)
  101467:	7f 06                	jg     10146f <serial_intr+0x154>
  101469:	83 6d f4 20          	subl   $0x20,-0xc(%ebp)
  10146d:	eb 10                	jmp    10147f <serial_intr+0x164>
  10146f:	83 7d f4 40          	cmpl   $0x40,-0xc(%ebp)
  101473:	7e 0a                	jle    10147f <serial_intr+0x164>
  101475:	83 7d f4 5a          	cmpl   $0x5a,-0xc(%ebp)
  101479:	7f 04                	jg     10147f <serial_intr+0x164>
  10147b:	83 45 f4 20          	addl   $0x20,-0xc(%ebp)
  10147f:	a1 88 f0 10 00       	mov    0x10f088,%eax
  101484:	f7 d0                	not    %eax
  101486:	83 e0 06             	and    $0x6,%eax
  101489:	85 c0                	test   %eax,%eax
  10148b:	75 2a                	jne    1014b7 <serial_intr+0x19c>
  10148d:	81 7d f4 e9 00 00 00 	cmpl   $0xe9,-0xc(%ebp)
  101494:	75 21                	jne    1014b7 <serial_intr+0x19c>
  101496:	83 ec 0c             	sub    $0xc,%esp
  101499:	68 3d 36 10 00       	push   $0x10363d
  10149e:	e8 7d ee ff ff       	call   100320 <cprintf>
  1014a3:	83 c4 10             	add    $0x10,%esp
  1014a6:	66 c7 45 e8 92 00    	movw   $0x92,-0x18(%ebp)
  1014ac:	c6 45 e7 03          	movb   $0x3,-0x19(%ebp)
  1014b0:	8a 45 e7             	mov    -0x19(%ebp),%al
  1014b3:	8b 55 e8             	mov    -0x18(%ebp),%edx
  1014b6:	ee                   	out    %al,(%dx)
  1014b7:	8b 45 f4             	mov    -0xc(%ebp),%eax
  1014ba:	c9                   	leave  
  1014bb:	c3                   	ret    
  1014bc:	55                   	push   %ebp
  1014bd:	89 e5                	mov    %esp,%ebp
  1014bf:	83 ec 08             	sub    $0x8,%esp
  1014c2:	83 ec 0c             	sub    $0xc,%esp
  1014c5:	68 0d 13 10 00       	push   $0x10130d
  1014ca:	e8 ac fd ff ff       	call   10127b <clock_init+0x53e>
  1014cf:	83 c4 10             	add    $0x10,%esp
  1014d2:	c9                   	leave  
  1014d3:	c3                   	ret    
  1014d4:	55                   	push   %ebp
  1014d5:	89 e5                	mov    %esp,%ebp
  1014d7:	83 ec 08             	sub    $0x8,%esp
  1014da:	e8 dd ff ff ff       	call   1014bc <serial_intr+0x1a1>
  1014df:	83 ec 0c             	sub    $0xc,%esp
  1014e2:	6a 01                	push   $0x1
  1014e4:	e8 1e 01 00 00       	call   101607 <pic_enable>
  1014e9:	83 c4 10             	add    $0x10,%esp
  1014ec:	c9                   	leave  
  1014ed:	c3                   	ret    

001014ee <cons_init>:
  1014ee:	55                   	push   %ebp
  1014ef:	89 e5                	mov    %esp,%ebp
  1014f1:	83 ec 08             	sub    $0x8,%esp
  1014f4:	e8 f1 f8 ff ff       	call   100dea <clock_init+0xad>
  1014f9:	e8 c6 f9 ff ff       	call   100ec4 <clock_init+0x187>
  1014fe:	e8 d1 ff ff ff       	call   1014d4 <serial_intr+0x1b9>
  101503:	a1 68 ee 10 00       	mov    0x10ee68,%eax
  101508:	85 c0                	test   %eax,%eax
  10150a:	75 10                	jne    10151c <cons_init+0x2e>
  10150c:	83 ec 0c             	sub    $0xc,%esp
  10150f:	68 49 36 10 00       	push   $0x103649
  101514:	e8 07 ee ff ff       	call   100320 <cprintf>
  101519:	83 c4 10             	add    $0x10,%esp
  10151c:	c9                   	leave  
  10151d:	c3                   	ret    

0010151e <cons_putc>:
  10151e:	55                   	push   %ebp
  10151f:	89 e5                	mov    %esp,%ebp
  101521:	83 ec 08             	sub    $0x8,%esp
  101524:	ff 75 08             	pushl  0x8(%ebp)
  101527:	e8 e8 fa ff ff       	call   101014 <clock_init+0x2d7>
  10152c:	83 c4 04             	add    $0x4,%esp
  10152f:	83 ec 0c             	sub    $0xc,%esp
  101532:	ff 75 08             	pushl  0x8(%ebp)
  101535:	e8 10 fb ff ff       	call   10104a <clock_init+0x30d>
  10153a:	83 c4 10             	add    $0x10,%esp
  10153d:	83 ec 0c             	sub    $0xc,%esp
  101540:	ff 75 08             	pushl  0x8(%ebp)
  101543:	e8 fd fc ff ff       	call   101245 <clock_init+0x508>
  101548:	83 c4 10             	add    $0x10,%esp
  10154b:	c9                   	leave  
  10154c:	c3                   	ret    

0010154d <cons_getc>:
  10154d:	55                   	push   %ebp
  10154e:	89 e5                	mov    %esp,%ebp
  101550:	83 ec 18             	sub    $0x18,%esp
  101553:	e8 c3 fd ff ff       	call   10131b <serial_intr>
  101558:	e8 5f ff ff ff       	call   1014bc <serial_intr+0x1a1>
  10155d:	8b 15 80 f0 10 00    	mov    0x10f080,%edx
  101563:	a1 84 f0 10 00       	mov    0x10f084,%eax
  101568:	39 c2                	cmp    %eax,%edx
  10156a:	74 35                	je     1015a1 <cons_getc+0x54>
  10156c:	a1 80 f0 10 00       	mov    0x10f080,%eax
  101571:	8d 50 01             	lea    0x1(%eax),%edx
  101574:	89 15 80 f0 10 00    	mov    %edx,0x10f080
  10157a:	8a 80 80 ee 10 00    	mov    0x10ee80(%eax),%al
  101580:	0f b6 c0             	movzbl %al,%eax
  101583:	89 45 f4             	mov    %eax,-0xc(%ebp)
  101586:	a1 80 f0 10 00       	mov    0x10f080,%eax
  10158b:	3d 00 02 00 00       	cmp    $0x200,%eax
  101590:	75 0a                	jne    10159c <cons_getc+0x4f>
  101592:	c7 05 80 f0 10 00 00 	movl   $0x0,0x10f080
  101599:	00 00 00 
  10159c:	8b 45 f4             	mov    -0xc(%ebp),%eax
  10159f:	eb 05                	jmp    1015a6 <cons_getc+0x59>
  1015a1:	b8 00 00 00 00       	mov    $0x0,%eax
  1015a6:	c9                   	leave  
  1015a7:	c3                   	ret    

001015a8 <intr_enable>:
  1015a8:	55                   	push   %ebp
  1015a9:	89 e5                	mov    %esp,%ebp
  1015ab:	fb                   	sti    
  1015ac:	5d                   	pop    %ebp
  1015ad:	c3                   	ret    

001015ae <intr_disable>:
  1015ae:	55                   	push   %ebp
  1015af:	89 e5                	mov    %esp,%ebp
  1015b1:	fa                   	cli    
  1015b2:	5d                   	pop    %ebp
  1015b3:	c3                   	ret    
  1015b4:	55                   	push   %ebp
  1015b5:	89 e5                	mov    %esp,%ebp
  1015b7:	83 ec 14             	sub    $0x14,%esp
  1015ba:	8b 45 08             	mov    0x8(%ebp),%eax
  1015bd:	66 89 45 ec          	mov    %ax,-0x14(%ebp)
  1015c1:	8b 45 ec             	mov    -0x14(%ebp),%eax
  1015c4:	66 a3 50 e5 10 00    	mov    %ax,0x10e550
  1015ca:	a1 8c f0 10 00       	mov    0x10f08c,%eax
  1015cf:	85 c0                	test   %eax,%eax
  1015d1:	74 32                	je     101605 <intr_disable+0x57>
  1015d3:	8b 45 ec             	mov    -0x14(%ebp),%eax
  1015d6:	0f b6 c0             	movzbl %al,%eax
  1015d9:	66 c7 45 fe 21 00    	movw   $0x21,-0x2(%ebp)
  1015df:	88 45 fd             	mov    %al,-0x3(%ebp)
  1015e2:	8a 45 fd             	mov    -0x3(%ebp),%al
  1015e5:	66 8b 55 fe          	mov    -0x2(%ebp),%dx
  1015e9:	ee                   	out    %al,(%dx)
  1015ea:	8b 45 ec             	mov    -0x14(%ebp),%eax
  1015ed:	66 c1 e8 08          	shr    $0x8,%ax
  1015f1:	0f b6 c0             	movzbl %al,%eax
  1015f4:	66 c7 45 fa a1 00    	movw   $0xa1,-0x6(%ebp)
  1015fa:	88 45 f9             	mov    %al,-0x7(%ebp)
  1015fd:	8a 45 f9             	mov    -0x7(%ebp),%al
  101600:	66 8b 55 fa          	mov    -0x6(%ebp),%dx
  101604:	ee                   	out    %al,(%dx)
  101605:	c9                   	leave  
  101606:	c3                   	ret    

00101607 <pic_enable>:
  101607:	55                   	push   %ebp
  101608:	89 e5                	mov    %esp,%ebp
  10160a:	8b 45 08             	mov    0x8(%ebp),%eax
  10160d:	ba 01 00 00 00       	mov    $0x1,%edx
  101612:	88 c1                	mov    %al,%cl
  101614:	d3 e2                	shl    %cl,%edx
  101616:	89 d0                	mov    %edx,%eax
  101618:	f7 d0                	not    %eax
  10161a:	89 c2                	mov    %eax,%edx
  10161c:	66 a1 50 e5 10 00    	mov    0x10e550,%ax
  101622:	21 d0                	and    %edx,%eax
  101624:	0f b7 c0             	movzwl %ax,%eax
  101627:	50                   	push   %eax
  101628:	e8 87 ff ff ff       	call   1015b4 <intr_disable+0x6>
  10162d:	83 c4 04             	add    $0x4,%esp
  101630:	c9                   	leave  
  101631:	c3                   	ret    

00101632 <pic_init>:
  101632:	55                   	push   %ebp
  101633:	89 e5                	mov    %esp,%ebp
  101635:	83 ec 40             	sub    $0x40,%esp
  101638:	c7 05 8c f0 10 00 01 	movl   $0x1,0x10f08c
  10163f:	00 00 00 
  101642:	66 c7 45 fe 21 00    	movw   $0x21,-0x2(%ebp)
  101648:	c6 45 fd ff          	movb   $0xff,-0x3(%ebp)
  10164c:	8a 45 fd             	mov    -0x3(%ebp),%al
  10164f:	66 8b 55 fe          	mov    -0x2(%ebp),%dx
  101653:	ee                   	out    %al,(%dx)
  101654:	66 c7 45 fa a1 00    	movw   $0xa1,-0x6(%ebp)
  10165a:	c6 45 f9 ff          	movb   $0xff,-0x7(%ebp)
  10165e:	8a 45 f9             	mov    -0x7(%ebp),%al
  101661:	66 8b 55 fa          	mov    -0x6(%ebp),%dx
  101665:	ee                   	out    %al,(%dx)
  101666:	66 c7 45 f6 20 00    	movw   $0x20,-0xa(%ebp)
  10166c:	c6 45 f5 11          	movb   $0x11,-0xb(%ebp)
  101670:	8a 45 f5             	mov    -0xb(%ebp),%al
  101673:	66 8b 55 f6          	mov    -0xa(%ebp),%dx
  101677:	ee                   	out    %al,(%dx)
  101678:	66 c7 45 f2 21 00    	movw   $0x21,-0xe(%ebp)
  10167e:	c6 45 f1 20          	movb   $0x20,-0xf(%ebp)
  101682:	8a 45 f1             	mov    -0xf(%ebp),%al
  101685:	66 8b 55 f2          	mov    -0xe(%ebp),%dx
  101689:	ee                   	out    %al,(%dx)
  10168a:	66 c7 45 ee 21 00    	movw   $0x21,-0x12(%ebp)
  101690:	c6 45 ed 04          	movb   $0x4,-0x13(%ebp)
  101694:	8a 45 ed             	mov    -0x13(%ebp),%al
  101697:	66 8b 55 ee          	mov    -0x12(%ebp),%dx
  10169b:	ee                   	out    %al,(%dx)
  10169c:	66 c7 45 ea 21 00    	movw   $0x21,-0x16(%ebp)
  1016a2:	c6 45 e9 03          	movb   $0x3,-0x17(%ebp)
  1016a6:	8a 45 e9             	mov    -0x17(%ebp),%al
  1016a9:	66 8b 55 ea          	mov    -0x16(%ebp),%dx
  1016ad:	ee                   	out    %al,(%dx)
  1016ae:	66 c7 45 e6 a0 00    	movw   $0xa0,-0x1a(%ebp)
  1016b4:	c6 45 e5 11          	movb   $0x11,-0x1b(%ebp)
  1016b8:	8a 45 e5             	mov    -0x1b(%ebp),%al
  1016bb:	66 8b 55 e6          	mov    -0x1a(%ebp),%dx
  1016bf:	ee                   	out    %al,(%dx)
  1016c0:	66 c7 45 e2 a1 00    	movw   $0xa1,-0x1e(%ebp)
  1016c6:	c6 45 e1 28          	movb   $0x28,-0x1f(%ebp)
  1016ca:	8a 45 e1             	mov    -0x1f(%ebp),%al
  1016cd:	66 8b 55 e2          	mov    -0x1e(%ebp),%dx
  1016d1:	ee                   	out    %al,(%dx)
  1016d2:	66 c7 45 de a1 00    	movw   $0xa1,-0x22(%ebp)
  1016d8:	c6 45 dd 02          	movb   $0x2,-0x23(%ebp)
  1016dc:	8a 45 dd             	mov    -0x23(%ebp),%al
  1016df:	66 8b 55 de          	mov    -0x22(%ebp),%dx
  1016e3:	ee                   	out    %al,(%dx)
  1016e4:	66 c7 45 da a1 00    	movw   $0xa1,-0x26(%ebp)
  1016ea:	c6 45 d9 03          	movb   $0x3,-0x27(%ebp)
  1016ee:	8a 45 d9             	mov    -0x27(%ebp),%al
  1016f1:	66 8b 55 da          	mov    -0x26(%ebp),%dx
  1016f5:	ee                   	out    %al,(%dx)
  1016f6:	66 c7 45 d6 20 00    	movw   $0x20,-0x2a(%ebp)
  1016fc:	c6 45 d5 68          	movb   $0x68,-0x2b(%ebp)
  101700:	8a 45 d5             	mov    -0x2b(%ebp),%al
  101703:	66 8b 55 d6          	mov    -0x2a(%ebp),%dx
  101707:	ee                   	out    %al,(%dx)
  101708:	66 c7 45 d2 20 00    	movw   $0x20,-0x2e(%ebp)
  10170e:	c6 45 d1 0a          	movb   $0xa,-0x2f(%ebp)
  101712:	8a 45 d1             	mov    -0x2f(%ebp),%al
  101715:	66 8b 55 d2          	mov    -0x2e(%ebp),%dx
  101719:	ee                   	out    %al,(%dx)
  10171a:	66 c7 45 ce a0 00    	movw   $0xa0,-0x32(%ebp)
  101720:	c6 45 cd 68          	movb   $0x68,-0x33(%ebp)
  101724:	8a 45 cd             	mov    -0x33(%ebp),%al
  101727:	66 8b 55 ce          	mov    -0x32(%ebp),%dx
  10172b:	ee                   	out    %al,(%dx)
  10172c:	66 c7 45 ca a0 00    	movw   $0xa0,-0x36(%ebp)
  101732:	c6 45 c9 0a          	movb   $0xa,-0x37(%ebp)
  101736:	8a 45 c9             	mov    -0x37(%ebp),%al
  101739:	66 8b 55 ca          	mov    -0x36(%ebp),%dx
  10173d:	ee                   	out    %al,(%dx)
  10173e:	66 a1 50 e5 10 00    	mov    0x10e550,%ax
  101744:	66 83 f8 ff          	cmp    $0xffff,%ax
  101748:	74 12                	je     10175c <pic_init+0x12a>
  10174a:	66 a1 50 e5 10 00    	mov    0x10e550,%ax
  101750:	0f b7 c0             	movzwl %ax,%eax
  101753:	50                   	push   %eax
  101754:	e8 5b fe ff ff       	call   1015b4 <intr_disable+0x6>
  101759:	83 c4 04             	add    $0x4,%esp
  10175c:	c9                   	leave  
  10175d:	c3                   	ret    
  10175e:	55                   	push   %ebp
  10175f:	89 e5                	mov    %esp,%ebp
  101761:	83 ec 08             	sub    $0x8,%esp
  101764:	83 ec 08             	sub    $0x8,%esp
  101767:	6a 64                	push   $0x64
  101769:	68 80 36 10 00       	push   $0x103680
  10176e:	e8 ad eb ff ff       	call   100320 <cprintf>
  101773:	83 c4 10             	add    $0x10,%esp
  101776:	c9                   	leave  
  101777:	c3                   	ret    

00101778 <idt_init>:
  101778:	55                   	push   %ebp
  101779:	89 e5                	mov    %esp,%ebp
  10177b:	83 ec 10             	sub    $0x10,%esp
  10177e:	c7 45 f8 00 00 00 00 	movl   $0x0,-0x8(%ebp)
  101785:	c7 45 f4 00 00 00 00 	movl   $0x0,-0xc(%ebp)
  10178c:	c7 45 fc 00 00 00 00 	movl   $0x0,-0x4(%ebp)
  101793:	e9 da 00 00 00       	jmp    101872 <idt_init+0xfa>
  101798:	8b 45 fc             	mov    -0x4(%ebp),%eax
  10179b:	8b 04 85 e0 e5 10 00 	mov    0x10e5e0(,%eax,4),%eax
  1017a2:	8b 55 fc             	mov    -0x4(%ebp),%edx
  1017a5:	66 89 04 d5 a0 f0 10 	mov    %ax,0x10f0a0(,%edx,8)
  1017ac:	00 
  1017ad:	8b 45 fc             	mov    -0x4(%ebp),%eax
  1017b0:	66 c7 04 c5 a2 f0 10 	movw   $0x8,0x10f0a2(,%eax,8)
  1017b7:	00 08 00 
  1017ba:	8b 45 fc             	mov    -0x4(%ebp),%eax
  1017bd:	8a 14 c5 a4 f0 10 00 	mov    0x10f0a4(,%eax,8),%dl
  1017c4:	83 e2 e0             	and    $0xffffffe0,%edx
  1017c7:	88 14 c5 a4 f0 10 00 	mov    %dl,0x10f0a4(,%eax,8)
  1017ce:	8b 45 fc             	mov    -0x4(%ebp),%eax
  1017d1:	8a 14 c5 a4 f0 10 00 	mov    0x10f0a4(,%eax,8),%dl
  1017d8:	83 e2 1f             	and    $0x1f,%edx
  1017db:	88 14 c5 a4 f0 10 00 	mov    %dl,0x10f0a4(,%eax,8)
  1017e2:	83 7d f8 00          	cmpl   $0x0,-0x8(%ebp)
  1017e6:	74 04                	je     1017ec <idt_init+0x74>
  1017e8:	b2 0f                	mov    $0xf,%dl
  1017ea:	eb 02                	jmp    1017ee <idt_init+0x76>
  1017ec:	b2 0e                	mov    $0xe,%dl
  1017ee:	8b 45 fc             	mov    -0x4(%ebp),%eax
  1017f1:	88 d1                	mov    %dl,%cl
  1017f3:	83 e1 0f             	and    $0xf,%ecx
  1017f6:	8a 14 c5 a5 f0 10 00 	mov    0x10f0a5(,%eax,8),%dl
  1017fd:	83 e2 f0             	and    $0xfffffff0,%edx
  101800:	09 ca                	or     %ecx,%edx
  101802:	88 14 c5 a5 f0 10 00 	mov    %dl,0x10f0a5(,%eax,8)
  101809:	8b 45 fc             	mov    -0x4(%ebp),%eax
  10180c:	8a 14 c5 a5 f0 10 00 	mov    0x10f0a5(,%eax,8),%dl
  101813:	83 e2 ef             	and    $0xffffffef,%edx
  101816:	88 14 c5 a5 f0 10 00 	mov    %dl,0x10f0a5(,%eax,8)
  10181d:	8b 45 f4             	mov    -0xc(%ebp),%eax
  101820:	83 e0 03             	and    $0x3,%eax
  101823:	88 c2                	mov    %al,%dl
  101825:	8b 45 fc             	mov    -0x4(%ebp),%eax
  101828:	83 e2 03             	and    $0x3,%edx
  10182b:	88 d1                	mov    %dl,%cl
  10182d:	c1 e1 05             	shl    $0x5,%ecx
  101830:	8a 14 c5 a5 f0 10 00 	mov    0x10f0a5(,%eax,8),%dl
  101837:	83 e2 9f             	and    $0xffffff9f,%edx
  10183a:	09 ca                	or     %ecx,%edx
  10183c:	88 14 c5 a5 f0 10 00 	mov    %dl,0x10f0a5(,%eax,8)
  101843:	8b 45 fc             	mov    -0x4(%ebp),%eax
  101846:	8a 14 c5 a5 f0 10 00 	mov    0x10f0a5(,%eax,8),%dl
  10184d:	83 ca 80             	or     $0xffffff80,%edx
  101850:	88 14 c5 a5 f0 10 00 	mov    %dl,0x10f0a5(,%eax,8)
  101857:	8b 45 fc             	mov    -0x4(%ebp),%eax
  10185a:	8b 04 85 e0 e5 10 00 	mov    0x10e5e0(,%eax,4),%eax
  101861:	c1 e8 10             	shr    $0x10,%eax
  101864:	8b 55 fc             	mov    -0x4(%ebp),%edx
  101867:	66 89 04 d5 a6 f0 10 	mov    %ax,0x10f0a6(,%edx,8)
  10186e:	00 
  10186f:	ff 45 fc             	incl   -0x4(%ebp)
  101872:	81 7d fc ff 00 00 00 	cmpl   $0xff,-0x4(%ebp)
  101879:	0f 8e 19 ff ff ff    	jle    101798 <idt_init+0x20>
  10187f:	a1 e0 e7 10 00       	mov    0x10e7e0,%eax
  101884:	66 a3 a0 f4 10 00    	mov    %ax,0x10f4a0
  10188a:	66 c7 05 a2 f4 10 00 	movw   $0x8,0x10f4a2
  101891:	08 00 
  101893:	a0 a4 f4 10 00       	mov    0x10f4a4,%al
  101898:	83 e0 e0             	and    $0xffffffe0,%eax
  10189b:	a2 a4 f4 10 00       	mov    %al,0x10f4a4
  1018a0:	a0 a4 f4 10 00       	mov    0x10f4a4,%al
  1018a5:	83 e0 1f             	and    $0x1f,%eax
  1018a8:	a2 a4 f4 10 00       	mov    %al,0x10f4a4
  1018ad:	a0 a5 f4 10 00       	mov    0x10f4a5,%al
  1018b2:	83 c8 0f             	or     $0xf,%eax
  1018b5:	a2 a5 f4 10 00       	mov    %al,0x10f4a5
  1018ba:	a0 a5 f4 10 00       	mov    0x10f4a5,%al
  1018bf:	83 e0 ef             	and    $0xffffffef,%eax
  1018c2:	a2 a5 f4 10 00       	mov    %al,0x10f4a5
  1018c7:	a0 a5 f4 10 00       	mov    0x10f4a5,%al
  1018cc:	83 e0 9f             	and    $0xffffff9f,%eax
  1018cf:	83 c8 20             	or     $0x20,%eax
  1018d2:	a2 a5 f4 10 00       	mov    %al,0x10f4a5
  1018d7:	a0 a5 f4 10 00       	mov    0x10f4a5,%al
  1018dc:	83 c8 80             	or     $0xffffff80,%eax
  1018df:	a2 a5 f4 10 00       	mov    %al,0x10f4a5
  1018e4:	a1 e0 e7 10 00       	mov    0x10e7e0,%eax
  1018e9:	c1 e8 10             	shr    $0x10,%eax
  1018ec:	66 a3 a6 f4 10 00    	mov    %ax,0x10f4a6
  1018f2:	c7 45 f0 60 e5 10 00 	movl   $0x10e560,-0x10(%ebp)
  1018f9:	8b 45 f0             	mov    -0x10(%ebp),%eax
  1018fc:	0f 01 18             	lidtl  (%eax)
  1018ff:	c9                   	leave  
  101900:	c3                   	ret    
  101901:	55                   	push   %ebp
  101902:	89 e5                	mov    %esp,%ebp
  101904:	8b 45 08             	mov    0x8(%ebp),%eax
  101907:	83 f8 13             	cmp    $0x13,%eax
  10190a:	77 0c                	ja     101918 <idt_init+0x1a0>
  10190c:	8b 45 08             	mov    0x8(%ebp),%eax
  10190f:	8b 04 85 e0 39 10 00 	mov    0x1039e0(,%eax,4),%eax
  101916:	eb 18                	jmp    101930 <idt_init+0x1b8>
  101918:	83 7d 08 1f          	cmpl   $0x1f,0x8(%ebp)
  10191c:	7e 0d                	jle    10192b <idt_init+0x1b3>
  10191e:	83 7d 08 2f          	cmpl   $0x2f,0x8(%ebp)
  101922:	7f 07                	jg     10192b <idt_init+0x1b3>
  101924:	b8 8a 36 10 00       	mov    $0x10368a,%eax
  101929:	eb 05                	jmp    101930 <idt_init+0x1b8>
  10192b:	b8 9d 36 10 00       	mov    $0x10369d,%eax
  101930:	5d                   	pop    %ebp
  101931:	c3                   	ret    

00101932 <trap_in_kernel>:
  101932:	55                   	push   %ebp
  101933:	89 e5                	mov    %esp,%ebp
  101935:	8b 45 08             	mov    0x8(%ebp),%eax
  101938:	66 8b 40 3c          	mov    0x3c(%eax),%ax
  10193c:	66 83 f8 08          	cmp    $0x8,%ax
  101940:	0f 94 c0             	sete   %al
  101943:	0f b6 c0             	movzbl %al,%eax
  101946:	5d                   	pop    %ebp
  101947:	c3                   	ret    

00101948 <print_trapframe>:
  101948:	55                   	push   %ebp
  101949:	89 e5                	mov    %esp,%ebp
  10194b:	83 ec 18             	sub    $0x18,%esp
  10194e:	83 ec 08             	sub    $0x8,%esp
  101951:	ff 75 08             	pushl  0x8(%ebp)
  101954:	68 de 36 10 00       	push   $0x1036de
  101959:	e8 c2 e9 ff ff       	call   100320 <cprintf>
  10195e:	83 c4 10             	add    $0x10,%esp
  101961:	8b 45 08             	mov    0x8(%ebp),%eax
  101964:	83 ec 0c             	sub    $0xc,%esp
  101967:	50                   	push   %eax
  101968:	e8 bb 01 00 00       	call   101b28 <print_regs>
  10196d:	83 c4 10             	add    $0x10,%esp
  101970:	8b 45 08             	mov    0x8(%ebp),%eax
  101973:	66 8b 40 2c          	mov    0x2c(%eax),%ax
  101977:	0f b7 c0             	movzwl %ax,%eax
  10197a:	83 ec 08             	sub    $0x8,%esp
  10197d:	50                   	push   %eax
  10197e:	68 ef 36 10 00       	push   $0x1036ef
  101983:	e8 98 e9 ff ff       	call   100320 <cprintf>
  101988:	83 c4 10             	add    $0x10,%esp
  10198b:	8b 45 08             	mov    0x8(%ebp),%eax
  10198e:	66 8b 40 28          	mov    0x28(%eax),%ax
  101992:	0f b7 c0             	movzwl %ax,%eax
  101995:	83 ec 08             	sub    $0x8,%esp
  101998:	50                   	push   %eax
  101999:	68 02 37 10 00       	push   $0x103702
  10199e:	e8 7d e9 ff ff       	call   100320 <cprintf>
  1019a3:	83 c4 10             	add    $0x10,%esp
  1019a6:	8b 45 08             	mov    0x8(%ebp),%eax
  1019a9:	66 8b 40 24          	mov    0x24(%eax),%ax
  1019ad:	0f b7 c0             	movzwl %ax,%eax
  1019b0:	83 ec 08             	sub    $0x8,%esp
  1019b3:	50                   	push   %eax
  1019b4:	68 15 37 10 00       	push   $0x103715
  1019b9:	e8 62 e9 ff ff       	call   100320 <cprintf>
  1019be:	83 c4 10             	add    $0x10,%esp
  1019c1:	8b 45 08             	mov    0x8(%ebp),%eax
  1019c4:	66 8b 40 20          	mov    0x20(%eax),%ax
  1019c8:	0f b7 c0             	movzwl %ax,%eax
  1019cb:	83 ec 08             	sub    $0x8,%esp
  1019ce:	50                   	push   %eax
  1019cf:	68 28 37 10 00       	push   $0x103728
  1019d4:	e8 47 e9 ff ff       	call   100320 <cprintf>
  1019d9:	83 c4 10             	add    $0x10,%esp
  1019dc:	8b 45 08             	mov    0x8(%ebp),%eax
  1019df:	8b 40 30             	mov    0x30(%eax),%eax
  1019e2:	83 ec 0c             	sub    $0xc,%esp
  1019e5:	50                   	push   %eax
  1019e6:	e8 16 ff ff ff       	call   101901 <idt_init+0x189>
  1019eb:	83 c4 10             	add    $0x10,%esp
  1019ee:	89 c2                	mov    %eax,%edx
  1019f0:	8b 45 08             	mov    0x8(%ebp),%eax
  1019f3:	8b 40 30             	mov    0x30(%eax),%eax
  1019f6:	83 ec 04             	sub    $0x4,%esp
  1019f9:	52                   	push   %edx
  1019fa:	50                   	push   %eax
  1019fb:	68 3b 37 10 00       	push   $0x10373b
  101a00:	e8 1b e9 ff ff       	call   100320 <cprintf>
  101a05:	83 c4 10             	add    $0x10,%esp
  101a08:	8b 45 08             	mov    0x8(%ebp),%eax
  101a0b:	8b 40 34             	mov    0x34(%eax),%eax
  101a0e:	83 ec 08             	sub    $0x8,%esp
  101a11:	50                   	push   %eax
  101a12:	68 4d 37 10 00       	push   $0x10374d
  101a17:	e8 04 e9 ff ff       	call   100320 <cprintf>
  101a1c:	83 c4 10             	add    $0x10,%esp
  101a1f:	8b 45 08             	mov    0x8(%ebp),%eax
  101a22:	8b 40 38             	mov    0x38(%eax),%eax
  101a25:	83 ec 08             	sub    $0x8,%esp
  101a28:	50                   	push   %eax
  101a29:	68 5c 37 10 00       	push   $0x10375c
  101a2e:	e8 ed e8 ff ff       	call   100320 <cprintf>
  101a33:	83 c4 10             	add    $0x10,%esp
  101a36:	8b 45 08             	mov    0x8(%ebp),%eax
  101a39:	66 8b 40 3c          	mov    0x3c(%eax),%ax
  101a3d:	0f b7 c0             	movzwl %ax,%eax
  101a40:	83 ec 08             	sub    $0x8,%esp
  101a43:	50                   	push   %eax
  101a44:	68 6b 37 10 00       	push   $0x10376b
  101a49:	e8 d2 e8 ff ff       	call   100320 <cprintf>
  101a4e:	83 c4 10             	add    $0x10,%esp
  101a51:	8b 45 08             	mov    0x8(%ebp),%eax
  101a54:	8b 40 40             	mov    0x40(%eax),%eax
  101a57:	83 ec 08             	sub    $0x8,%esp
  101a5a:	50                   	push   %eax
  101a5b:	68 7e 37 10 00       	push   $0x10377e
  101a60:	e8 bb e8 ff ff       	call   100320 <cprintf>
  101a65:	83 c4 10             	add    $0x10,%esp
  101a68:	c7 45 f4 00 00 00 00 	movl   $0x0,-0xc(%ebp)
  101a6f:	c7 45 f0 01 00 00 00 	movl   $0x1,-0x10(%ebp)
  101a76:	eb 43                	jmp    101abb <print_trapframe+0x173>
  101a78:	8b 45 08             	mov    0x8(%ebp),%eax
  101a7b:	8b 50 40             	mov    0x40(%eax),%edx
  101a7e:	8b 45 f0             	mov    -0x10(%ebp),%eax
  101a81:	21 d0                	and    %edx,%eax
  101a83:	85 c0                	test   %eax,%eax
  101a85:	74 29                	je     101ab0 <print_trapframe+0x168>
  101a87:	8b 45 f4             	mov    -0xc(%ebp),%eax
  101a8a:	8b 04 85 80 e5 10 00 	mov    0x10e580(,%eax,4),%eax
  101a91:	85 c0                	test   %eax,%eax
  101a93:	74 1b                	je     101ab0 <print_trapframe+0x168>
  101a95:	8b 45 f4             	mov    -0xc(%ebp),%eax
  101a98:	8b 04 85 80 e5 10 00 	mov    0x10e580(,%eax,4),%eax
  101a9f:	83 ec 08             	sub    $0x8,%esp
  101aa2:	50                   	push   %eax
  101aa3:	68 8d 37 10 00       	push   $0x10378d
  101aa8:	e8 73 e8 ff ff       	call   100320 <cprintf>
  101aad:	83 c4 10             	add    $0x10,%esp
  101ab0:	ff 45 f4             	incl   -0xc(%ebp)
  101ab3:	8b 45 f0             	mov    -0x10(%ebp),%eax
  101ab6:	01 c0                	add    %eax,%eax
  101ab8:	89 45 f0             	mov    %eax,-0x10(%ebp)
  101abb:	8b 45 f4             	mov    -0xc(%ebp),%eax
  101abe:	83 f8 17             	cmp    $0x17,%eax
  101ac1:	76 b5                	jbe    101a78 <print_trapframe+0x130>
  101ac3:	8b 45 08             	mov    0x8(%ebp),%eax
  101ac6:	8b 40 40             	mov    0x40(%eax),%eax
  101ac9:	25 00 30 00 00       	and    $0x3000,%eax
  101ace:	c1 e8 0c             	shr    $0xc,%eax
  101ad1:	83 ec 08             	sub    $0x8,%esp
  101ad4:	50                   	push   %eax
  101ad5:	68 91 37 10 00       	push   $0x103791
  101ada:	e8 41 e8 ff ff       	call   100320 <cprintf>
  101adf:	83 c4 10             	add    $0x10,%esp
  101ae2:	83 ec 0c             	sub    $0xc,%esp
  101ae5:	ff 75 08             	pushl  0x8(%ebp)
  101ae8:	e8 45 fe ff ff       	call   101932 <trap_in_kernel>
  101aed:	83 c4 10             	add    $0x10,%esp
  101af0:	85 c0                	test   %eax,%eax
  101af2:	75 32                	jne    101b26 <print_trapframe+0x1de>
  101af4:	8b 45 08             	mov    0x8(%ebp),%eax
  101af7:	8b 40 44             	mov    0x44(%eax),%eax
  101afa:	83 ec 08             	sub    $0x8,%esp
  101afd:	50                   	push   %eax
  101afe:	68 9a 37 10 00       	push   $0x10379a
  101b03:	e8 18 e8 ff ff       	call   100320 <cprintf>
  101b08:	83 c4 10             	add    $0x10,%esp
  101b0b:	8b 45 08             	mov    0x8(%ebp),%eax
  101b0e:	66 8b 40 48          	mov    0x48(%eax),%ax
  101b12:	0f b7 c0             	movzwl %ax,%eax
  101b15:	83 ec 08             	sub    $0x8,%esp
  101b18:	50                   	push   %eax
  101b19:	68 a9 37 10 00       	push   $0x1037a9
  101b1e:	e8 fd e7 ff ff       	call   100320 <cprintf>
  101b23:	83 c4 10             	add    $0x10,%esp
  101b26:	c9                   	leave  
  101b27:	c3                   	ret    

00101b28 <print_regs>:
  101b28:	55                   	push   %ebp
  101b29:	89 e5                	mov    %esp,%ebp
  101b2b:	83 ec 08             	sub    $0x8,%esp
  101b2e:	8b 45 08             	mov    0x8(%ebp),%eax
  101b31:	8b 00                	mov    (%eax),%eax
  101b33:	83 ec 08             	sub    $0x8,%esp
  101b36:	50                   	push   %eax
  101b37:	68 bc 37 10 00       	push   $0x1037bc
  101b3c:	e8 df e7 ff ff       	call   100320 <cprintf>
  101b41:	83 c4 10             	add    $0x10,%esp
  101b44:	8b 45 08             	mov    0x8(%ebp),%eax
  101b47:	8b 40 04             	mov    0x4(%eax),%eax
  101b4a:	83 ec 08             	sub    $0x8,%esp
  101b4d:	50                   	push   %eax
  101b4e:	68 cb 37 10 00       	push   $0x1037cb
  101b53:	e8 c8 e7 ff ff       	call   100320 <cprintf>
  101b58:	83 c4 10             	add    $0x10,%esp
  101b5b:	8b 45 08             	mov    0x8(%ebp),%eax
  101b5e:	8b 40 08             	mov    0x8(%eax),%eax
  101b61:	83 ec 08             	sub    $0x8,%esp
  101b64:	50                   	push   %eax
  101b65:	68 da 37 10 00       	push   $0x1037da
  101b6a:	e8 b1 e7 ff ff       	call   100320 <cprintf>
  101b6f:	83 c4 10             	add    $0x10,%esp
  101b72:	8b 45 08             	mov    0x8(%ebp),%eax
  101b75:	8b 40 0c             	mov    0xc(%eax),%eax
  101b78:	83 ec 08             	sub    $0x8,%esp
  101b7b:	50                   	push   %eax
  101b7c:	68 e9 37 10 00       	push   $0x1037e9
  101b81:	e8 9a e7 ff ff       	call   100320 <cprintf>
  101b86:	83 c4 10             	add    $0x10,%esp
  101b89:	8b 45 08             	mov    0x8(%ebp),%eax
  101b8c:	8b 40 10             	mov    0x10(%eax),%eax
  101b8f:	83 ec 08             	sub    $0x8,%esp
  101b92:	50                   	push   %eax
  101b93:	68 f8 37 10 00       	push   $0x1037f8
  101b98:	e8 83 e7 ff ff       	call   100320 <cprintf>
  101b9d:	83 c4 10             	add    $0x10,%esp
  101ba0:	8b 45 08             	mov    0x8(%ebp),%eax
  101ba3:	8b 40 14             	mov    0x14(%eax),%eax
  101ba6:	83 ec 08             	sub    $0x8,%esp
  101ba9:	50                   	push   %eax
  101baa:	68 07 38 10 00       	push   $0x103807
  101baf:	e8 6c e7 ff ff       	call   100320 <cprintf>
  101bb4:	83 c4 10             	add    $0x10,%esp
  101bb7:	8b 45 08             	mov    0x8(%ebp),%eax
  101bba:	8b 40 18             	mov    0x18(%eax),%eax
  101bbd:	83 ec 08             	sub    $0x8,%esp
  101bc0:	50                   	push   %eax
  101bc1:	68 16 38 10 00       	push   $0x103816
  101bc6:	e8 55 e7 ff ff       	call   100320 <cprintf>
  101bcb:	83 c4 10             	add    $0x10,%esp
  101bce:	8b 45 08             	mov    0x8(%ebp),%eax
  101bd1:	8b 40 1c             	mov    0x1c(%eax),%eax
  101bd4:	83 ec 08             	sub    $0x8,%esp
  101bd7:	50                   	push   %eax
  101bd8:	68 25 38 10 00       	push   $0x103825
  101bdd:	e8 3e e7 ff ff       	call   100320 <cprintf>
  101be2:	83 c4 10             	add    $0x10,%esp
  101be5:	c9                   	leave  
  101be6:	c3                   	ret    
  101be7:	55                   	push   %ebp
  101be8:	89 e5                	mov    %esp,%ebp
  101bea:	83 ec 18             	sub    $0x18,%esp
  101bed:	8b 45 08             	mov    0x8(%ebp),%eax
  101bf0:	8b 40 30             	mov    0x30(%eax),%eax
  101bf3:	83 f8 2f             	cmp    $0x2f,%eax
  101bf6:	77 1d                	ja     101c15 <print_regs+0xed>
  101bf8:	83 f8 2e             	cmp    $0x2e,%eax
  101bfb:	0f 83 e8 00 00 00    	jae    101ce9 <print_regs+0x1c1>
  101c01:	83 f8 21             	cmp    $0x21,%eax
  101c04:	74 72                	je     101c78 <print_regs+0x150>
  101c06:	83 f8 24             	cmp    $0x24,%eax
  101c09:	74 49                	je     101c54 <print_regs+0x12c>
  101c0b:	83 f8 20             	cmp    $0x20,%eax
  101c0e:	74 13                	je     101c23 <print_regs+0xfb>
  101c10:	e9 9e 00 00 00       	jmp    101cb3 <print_regs+0x18b>
  101c15:	83 e8 78             	sub    $0x78,%eax
  101c18:	83 f8 01             	cmp    $0x1,%eax
  101c1b:	0f 87 92 00 00 00    	ja     101cb3 <print_regs+0x18b>
  101c21:	eb 79                	jmp    101c9c <print_regs+0x174>
  101c23:	a1 08 f9 10 00       	mov    0x10f908,%eax
  101c28:	40                   	inc    %eax
  101c29:	a3 08 f9 10 00       	mov    %eax,0x10f908
  101c2e:	a1 08 f9 10 00       	mov    0x10f908,%eax
  101c33:	b9 64 00 00 00       	mov    $0x64,%ecx
  101c38:	ba 00 00 00 00       	mov    $0x0,%edx
  101c3d:	f7 f1                	div    %ecx
  101c3f:	89 d0                	mov    %edx,%eax
  101c41:	85 c0                	test   %eax,%eax
  101c43:	75 0a                	jne    101c4f <print_regs+0x127>
  101c45:	e8 14 fb ff ff       	call   10175e <pic_init+0x12c>
  101c4a:	e9 9b 00 00 00       	jmp    101cea <print_regs+0x1c2>
  101c4f:	e9 96 00 00 00       	jmp    101cea <print_regs+0x1c2>
  101c54:	e8 f4 f8 ff ff       	call   10154d <cons_getc>
  101c59:	88 45 f7             	mov    %al,-0x9(%ebp)
  101c5c:	0f be 55 f7          	movsbl -0x9(%ebp),%edx
  101c60:	0f be 45 f7          	movsbl -0x9(%ebp),%eax
  101c64:	83 ec 04             	sub    $0x4,%esp
  101c67:	52                   	push   %edx
  101c68:	50                   	push   %eax
  101c69:	68 34 38 10 00       	push   $0x103834
  101c6e:	e8 ad e6 ff ff       	call   100320 <cprintf>
  101c73:	83 c4 10             	add    $0x10,%esp
  101c76:	eb 72                	jmp    101cea <print_regs+0x1c2>
  101c78:	e8 d0 f8 ff ff       	call   10154d <cons_getc>
  101c7d:	88 45 f7             	mov    %al,-0x9(%ebp)
  101c80:	0f be 55 f7          	movsbl -0x9(%ebp),%edx
  101c84:	0f be 45 f7          	movsbl -0x9(%ebp),%eax
  101c88:	83 ec 04             	sub    $0x4,%esp
  101c8b:	52                   	push   %edx
  101c8c:	50                   	push   %eax
  101c8d:	68 46 38 10 00       	push   $0x103846
  101c92:	e8 89 e6 ff ff       	call   100320 <cprintf>
  101c97:	83 c4 10             	add    $0x10,%esp
  101c9a:	eb 4e                	jmp    101cea <print_regs+0x1c2>
  101c9c:	83 ec 04             	sub    $0x4,%esp
  101c9f:	68 55 38 10 00       	push   $0x103855
  101ca4:	68 b0 00 00 00       	push   $0xb0
  101ca9:	68 65 38 10 00       	push   $0x103865
  101cae:	e8 cd ef ff ff       	call   100c80 <__panic>
  101cb3:	8b 45 08             	mov    0x8(%ebp),%eax
  101cb6:	66 8b 40 3c          	mov    0x3c(%eax),%ax
  101cba:	0f b7 c0             	movzwl %ax,%eax
  101cbd:	83 e0 03             	and    $0x3,%eax
  101cc0:	85 c0                	test   %eax,%eax
  101cc2:	75 26                	jne    101cea <print_regs+0x1c2>
  101cc4:	83 ec 0c             	sub    $0xc,%esp
  101cc7:	ff 75 08             	pushl  0x8(%ebp)
  101cca:	e8 79 fc ff ff       	call   101948 <print_trapframe>
  101ccf:	83 c4 10             	add    $0x10,%esp
  101cd2:	83 ec 04             	sub    $0x4,%esp
  101cd5:	68 76 38 10 00       	push   $0x103876
  101cda:	68 ba 00 00 00       	push   $0xba
  101cdf:	68 65 38 10 00       	push   $0x103865
  101ce4:	e8 97 ef ff ff       	call   100c80 <__panic>
  101ce9:	90                   	nop
  101cea:	c9                   	leave  
  101ceb:	c3                   	ret    

00101cec <trap>:
  101cec:	55                   	push   %ebp
  101ced:	89 e5                	mov    %esp,%ebp
  101cef:	83 ec 08             	sub    $0x8,%esp
  101cf2:	83 ec 0c             	sub    $0xc,%esp
  101cf5:	ff 75 08             	pushl  0x8(%ebp)
  101cf8:	e8 ea fe ff ff       	call   101be7 <print_regs+0xbf>
  101cfd:	83 c4 10             	add    $0x10,%esp
  101d00:	c9                   	leave  
  101d01:	c3                   	ret    

00101d02 <__alltraps>:
  101d02:	1e                   	push   %ds
  101d03:	06                   	push   %es
  101d04:	0f a0                	push   %fs
  101d06:	0f a8                	push   %gs
  101d08:	60                   	pusha  
  101d09:	b8 10 00 00 00       	mov    $0x10,%eax
  101d0e:	8e d8                	mov    %eax,%ds
  101d10:	8e c0                	mov    %eax,%es
  101d12:	54                   	push   %esp
  101d13:	e8 d4 ff ff ff       	call   101cec <trap>
  101d18:	5c                   	pop    %esp

00101d19 <__trapret>:
  101d19:	61                   	popa   
  101d1a:	0f a9                	pop    %gs
  101d1c:	0f a1                	pop    %fs
  101d1e:	07                   	pop    %es
  101d1f:	1f                   	pop    %ds
  101d20:	83 c4 08             	add    $0x8,%esp
  101d23:	cf                   	iret   

00101d24 <vector0>:
  101d24:	6a 00                	push   $0x0
  101d26:	6a 00                	push   $0x0
  101d28:	e9 d5 ff ff ff       	jmp    101d02 <__alltraps>

00101d2d <vector1>:
  101d2d:	6a 00                	push   $0x0
  101d2f:	6a 01                	push   $0x1
  101d31:	e9 cc ff ff ff       	jmp    101d02 <__alltraps>

00101d36 <vector2>:
  101d36:	6a 00                	push   $0x0
  101d38:	6a 02                	push   $0x2
  101d3a:	e9 c3 ff ff ff       	jmp    101d02 <__alltraps>

00101d3f <vector3>:
  101d3f:	6a 00                	push   $0x0
  101d41:	6a 03                	push   $0x3
  101d43:	e9 ba ff ff ff       	jmp    101d02 <__alltraps>

00101d48 <vector4>:
  101d48:	6a 00                	push   $0x0
  101d4a:	6a 04                	push   $0x4
  101d4c:	e9 b1 ff ff ff       	jmp    101d02 <__alltraps>

00101d51 <vector5>:
  101d51:	6a 00                	push   $0x0
  101d53:	6a 05                	push   $0x5
  101d55:	e9 a8 ff ff ff       	jmp    101d02 <__alltraps>

00101d5a <vector6>:
  101d5a:	6a 00                	push   $0x0
  101d5c:	6a 06                	push   $0x6
  101d5e:	e9 9f ff ff ff       	jmp    101d02 <__alltraps>

00101d63 <vector7>:
  101d63:	6a 00                	push   $0x0
  101d65:	6a 07                	push   $0x7
  101d67:	e9 96 ff ff ff       	jmp    101d02 <__alltraps>

00101d6c <vector8>:
  101d6c:	6a 08                	push   $0x8
  101d6e:	e9 8f ff ff ff       	jmp    101d02 <__alltraps>

00101d73 <vector9>:
  101d73:	6a 09                	push   $0x9
  101d75:	e9 88 ff ff ff       	jmp    101d02 <__alltraps>

00101d7a <vector10>:
  101d7a:	6a 0a                	push   $0xa
  101d7c:	e9 81 ff ff ff       	jmp    101d02 <__alltraps>

00101d81 <vector11>:
  101d81:	6a 0b                	push   $0xb
  101d83:	e9 7a ff ff ff       	jmp    101d02 <__alltraps>

00101d88 <vector12>:
  101d88:	6a 0c                	push   $0xc
  101d8a:	e9 73 ff ff ff       	jmp    101d02 <__alltraps>

00101d8f <vector13>:
  101d8f:	6a 0d                	push   $0xd
  101d91:	e9 6c ff ff ff       	jmp    101d02 <__alltraps>

00101d96 <vector14>:
  101d96:	6a 0e                	push   $0xe
  101d98:	e9 65 ff ff ff       	jmp    101d02 <__alltraps>

00101d9d <vector15>:
  101d9d:	6a 00                	push   $0x0
  101d9f:	6a 0f                	push   $0xf
  101da1:	e9 5c ff ff ff       	jmp    101d02 <__alltraps>

00101da6 <vector16>:
  101da6:	6a 00                	push   $0x0
  101da8:	6a 10                	push   $0x10
  101daa:	e9 53 ff ff ff       	jmp    101d02 <__alltraps>

00101daf <vector17>:
  101daf:	6a 11                	push   $0x11
  101db1:	e9 4c ff ff ff       	jmp    101d02 <__alltraps>

00101db6 <vector18>:
  101db6:	6a 00                	push   $0x0
  101db8:	6a 12                	push   $0x12
  101dba:	e9 43 ff ff ff       	jmp    101d02 <__alltraps>

00101dbf <vector19>:
  101dbf:	6a 00                	push   $0x0
  101dc1:	6a 13                	push   $0x13
  101dc3:	e9 3a ff ff ff       	jmp    101d02 <__alltraps>

00101dc8 <vector20>:
  101dc8:	6a 00                	push   $0x0
  101dca:	6a 14                	push   $0x14
  101dcc:	e9 31 ff ff ff       	jmp    101d02 <__alltraps>

00101dd1 <vector21>:
  101dd1:	6a 00                	push   $0x0
  101dd3:	6a 15                	push   $0x15
  101dd5:	e9 28 ff ff ff       	jmp    101d02 <__alltraps>

00101dda <vector22>:
  101dda:	6a 00                	push   $0x0
  101ddc:	6a 16                	push   $0x16
  101dde:	e9 1f ff ff ff       	jmp    101d02 <__alltraps>

00101de3 <vector23>:
  101de3:	6a 00                	push   $0x0
  101de5:	6a 17                	push   $0x17
  101de7:	e9 16 ff ff ff       	jmp    101d02 <__alltraps>

00101dec <vector24>:
  101dec:	6a 00                	push   $0x0
  101dee:	6a 18                	push   $0x18
  101df0:	e9 0d ff ff ff       	jmp    101d02 <__alltraps>

00101df5 <vector25>:
  101df5:	6a 00                	push   $0x0
  101df7:	6a 19                	push   $0x19
  101df9:	e9 04 ff ff ff       	jmp    101d02 <__alltraps>

00101dfe <vector26>:
  101dfe:	6a 00                	push   $0x0
  101e00:	6a 1a                	push   $0x1a
  101e02:	e9 fb fe ff ff       	jmp    101d02 <__alltraps>

00101e07 <vector27>:
  101e07:	6a 00                	push   $0x0
  101e09:	6a 1b                	push   $0x1b
  101e0b:	e9 f2 fe ff ff       	jmp    101d02 <__alltraps>

00101e10 <vector28>:
  101e10:	6a 00                	push   $0x0
  101e12:	6a 1c                	push   $0x1c
  101e14:	e9 e9 fe ff ff       	jmp    101d02 <__alltraps>

00101e19 <vector29>:
  101e19:	6a 00                	push   $0x0
  101e1b:	6a 1d                	push   $0x1d
  101e1d:	e9 e0 fe ff ff       	jmp    101d02 <__alltraps>

00101e22 <vector30>:
  101e22:	6a 00                	push   $0x0
  101e24:	6a 1e                	push   $0x1e
  101e26:	e9 d7 fe ff ff       	jmp    101d02 <__alltraps>

00101e2b <vector31>:
  101e2b:	6a 00                	push   $0x0
  101e2d:	6a 1f                	push   $0x1f
  101e2f:	e9 ce fe ff ff       	jmp    101d02 <__alltraps>

00101e34 <vector32>:
  101e34:	6a 00                	push   $0x0
  101e36:	6a 20                	push   $0x20
  101e38:	e9 c5 fe ff ff       	jmp    101d02 <__alltraps>

00101e3d <vector33>:
  101e3d:	6a 00                	push   $0x0
  101e3f:	6a 21                	push   $0x21
  101e41:	e9 bc fe ff ff       	jmp    101d02 <__alltraps>

00101e46 <vector34>:
  101e46:	6a 00                	push   $0x0
  101e48:	6a 22                	push   $0x22
  101e4a:	e9 b3 fe ff ff       	jmp    101d02 <__alltraps>

00101e4f <vector35>:
  101e4f:	6a 00                	push   $0x0
  101e51:	6a 23                	push   $0x23
  101e53:	e9 aa fe ff ff       	jmp    101d02 <__alltraps>

00101e58 <vector36>:
  101e58:	6a 00                	push   $0x0
  101e5a:	6a 24                	push   $0x24
  101e5c:	e9 a1 fe ff ff       	jmp    101d02 <__alltraps>

00101e61 <vector37>:
  101e61:	6a 00                	push   $0x0
  101e63:	6a 25                	push   $0x25
  101e65:	e9 98 fe ff ff       	jmp    101d02 <__alltraps>

00101e6a <vector38>:
  101e6a:	6a 00                	push   $0x0
  101e6c:	6a 26                	push   $0x26
  101e6e:	e9 8f fe ff ff       	jmp    101d02 <__alltraps>

00101e73 <vector39>:
  101e73:	6a 00                	push   $0x0
  101e75:	6a 27                	push   $0x27
  101e77:	e9 86 fe ff ff       	jmp    101d02 <__alltraps>

00101e7c <vector40>:
  101e7c:	6a 00                	push   $0x0
  101e7e:	6a 28                	push   $0x28
  101e80:	e9 7d fe ff ff       	jmp    101d02 <__alltraps>

00101e85 <vector41>:
  101e85:	6a 00                	push   $0x0
  101e87:	6a 29                	push   $0x29
  101e89:	e9 74 fe ff ff       	jmp    101d02 <__alltraps>

00101e8e <vector42>:
  101e8e:	6a 00                	push   $0x0
  101e90:	6a 2a                	push   $0x2a
  101e92:	e9 6b fe ff ff       	jmp    101d02 <__alltraps>

00101e97 <vector43>:
  101e97:	6a 00                	push   $0x0
  101e99:	6a 2b                	push   $0x2b
  101e9b:	e9 62 fe ff ff       	jmp    101d02 <__alltraps>

00101ea0 <vector44>:
  101ea0:	6a 00                	push   $0x0
  101ea2:	6a 2c                	push   $0x2c
  101ea4:	e9 59 fe ff ff       	jmp    101d02 <__alltraps>

00101ea9 <vector45>:
  101ea9:	6a 00                	push   $0x0
  101eab:	6a 2d                	push   $0x2d
  101ead:	e9 50 fe ff ff       	jmp    101d02 <__alltraps>

00101eb2 <vector46>:
  101eb2:	6a 00                	push   $0x0
  101eb4:	6a 2e                	push   $0x2e
  101eb6:	e9 47 fe ff ff       	jmp    101d02 <__alltraps>

00101ebb <vector47>:
  101ebb:	6a 00                	push   $0x0
  101ebd:	6a 2f                	push   $0x2f
  101ebf:	e9 3e fe ff ff       	jmp    101d02 <__alltraps>

00101ec4 <vector48>:
  101ec4:	6a 00                	push   $0x0
  101ec6:	6a 30                	push   $0x30
  101ec8:	e9 35 fe ff ff       	jmp    101d02 <__alltraps>

00101ecd <vector49>:
  101ecd:	6a 00                	push   $0x0
  101ecf:	6a 31                	push   $0x31
  101ed1:	e9 2c fe ff ff       	jmp    101d02 <__alltraps>

00101ed6 <vector50>:
  101ed6:	6a 00                	push   $0x0
  101ed8:	6a 32                	push   $0x32
  101eda:	e9 23 fe ff ff       	jmp    101d02 <__alltraps>

00101edf <vector51>:
  101edf:	6a 00                	push   $0x0
  101ee1:	6a 33                	push   $0x33
  101ee3:	e9 1a fe ff ff       	jmp    101d02 <__alltraps>

00101ee8 <vector52>:
  101ee8:	6a 00                	push   $0x0
  101eea:	6a 34                	push   $0x34
  101eec:	e9 11 fe ff ff       	jmp    101d02 <__alltraps>

00101ef1 <vector53>:
  101ef1:	6a 00                	push   $0x0
  101ef3:	6a 35                	push   $0x35
  101ef5:	e9 08 fe ff ff       	jmp    101d02 <__alltraps>

00101efa <vector54>:
  101efa:	6a 00                	push   $0x0
  101efc:	6a 36                	push   $0x36
  101efe:	e9 ff fd ff ff       	jmp    101d02 <__alltraps>

00101f03 <vector55>:
  101f03:	6a 00                	push   $0x0
  101f05:	6a 37                	push   $0x37
  101f07:	e9 f6 fd ff ff       	jmp    101d02 <__alltraps>

00101f0c <vector56>:
  101f0c:	6a 00                	push   $0x0
  101f0e:	6a 38                	push   $0x38
  101f10:	e9 ed fd ff ff       	jmp    101d02 <__alltraps>

00101f15 <vector57>:
  101f15:	6a 00                	push   $0x0
  101f17:	6a 39                	push   $0x39
  101f19:	e9 e4 fd ff ff       	jmp    101d02 <__alltraps>

00101f1e <vector58>:
  101f1e:	6a 00                	push   $0x0
  101f20:	6a 3a                	push   $0x3a
  101f22:	e9 db fd ff ff       	jmp    101d02 <__alltraps>

00101f27 <vector59>:
  101f27:	6a 00                	push   $0x0
  101f29:	6a 3b                	push   $0x3b
  101f2b:	e9 d2 fd ff ff       	jmp    101d02 <__alltraps>

00101f30 <vector60>:
  101f30:	6a 00                	push   $0x0
  101f32:	6a 3c                	push   $0x3c
  101f34:	e9 c9 fd ff ff       	jmp    101d02 <__alltraps>

00101f39 <vector61>:
  101f39:	6a 00                	push   $0x0
  101f3b:	6a 3d                	push   $0x3d
  101f3d:	e9 c0 fd ff ff       	jmp    101d02 <__alltraps>

00101f42 <vector62>:
  101f42:	6a 00                	push   $0x0
  101f44:	6a 3e                	push   $0x3e
  101f46:	e9 b7 fd ff ff       	jmp    101d02 <__alltraps>

00101f4b <vector63>:
  101f4b:	6a 00                	push   $0x0
  101f4d:	6a 3f                	push   $0x3f
  101f4f:	e9 ae fd ff ff       	jmp    101d02 <__alltraps>

00101f54 <vector64>:
  101f54:	6a 00                	push   $0x0
  101f56:	6a 40                	push   $0x40
  101f58:	e9 a5 fd ff ff       	jmp    101d02 <__alltraps>

00101f5d <vector65>:
  101f5d:	6a 00                	push   $0x0
  101f5f:	6a 41                	push   $0x41
  101f61:	e9 9c fd ff ff       	jmp    101d02 <__alltraps>

00101f66 <vector66>:
  101f66:	6a 00                	push   $0x0
  101f68:	6a 42                	push   $0x42
  101f6a:	e9 93 fd ff ff       	jmp    101d02 <__alltraps>

00101f6f <vector67>:
  101f6f:	6a 00                	push   $0x0
  101f71:	6a 43                	push   $0x43
  101f73:	e9 8a fd ff ff       	jmp    101d02 <__alltraps>

00101f78 <vector68>:
  101f78:	6a 00                	push   $0x0
  101f7a:	6a 44                	push   $0x44
  101f7c:	e9 81 fd ff ff       	jmp    101d02 <__alltraps>

00101f81 <vector69>:
  101f81:	6a 00                	push   $0x0
  101f83:	6a 45                	push   $0x45
  101f85:	e9 78 fd ff ff       	jmp    101d02 <__alltraps>

00101f8a <vector70>:
  101f8a:	6a 00                	push   $0x0
  101f8c:	6a 46                	push   $0x46
  101f8e:	e9 6f fd ff ff       	jmp    101d02 <__alltraps>

00101f93 <vector71>:
  101f93:	6a 00                	push   $0x0
  101f95:	6a 47                	push   $0x47
  101f97:	e9 66 fd ff ff       	jmp    101d02 <__alltraps>

00101f9c <vector72>:
  101f9c:	6a 00                	push   $0x0
  101f9e:	6a 48                	push   $0x48
  101fa0:	e9 5d fd ff ff       	jmp    101d02 <__alltraps>

00101fa5 <vector73>:
  101fa5:	6a 00                	push   $0x0
  101fa7:	6a 49                	push   $0x49
  101fa9:	e9 54 fd ff ff       	jmp    101d02 <__alltraps>

00101fae <vector74>:
  101fae:	6a 00                	push   $0x0
  101fb0:	6a 4a                	push   $0x4a
  101fb2:	e9 4b fd ff ff       	jmp    101d02 <__alltraps>

00101fb7 <vector75>:
  101fb7:	6a 00                	push   $0x0
  101fb9:	6a 4b                	push   $0x4b
  101fbb:	e9 42 fd ff ff       	jmp    101d02 <__alltraps>

00101fc0 <vector76>:
  101fc0:	6a 00                	push   $0x0
  101fc2:	6a 4c                	push   $0x4c
  101fc4:	e9 39 fd ff ff       	jmp    101d02 <__alltraps>

00101fc9 <vector77>:
  101fc9:	6a 00                	push   $0x0
  101fcb:	6a 4d                	push   $0x4d
  101fcd:	e9 30 fd ff ff       	jmp    101d02 <__alltraps>

00101fd2 <vector78>:
  101fd2:	6a 00                	push   $0x0
  101fd4:	6a 4e                	push   $0x4e
  101fd6:	e9 27 fd ff ff       	jmp    101d02 <__alltraps>

00101fdb <vector79>:
  101fdb:	6a 00                	push   $0x0
  101fdd:	6a 4f                	push   $0x4f
  101fdf:	e9 1e fd ff ff       	jmp    101d02 <__alltraps>

00101fe4 <vector80>:
  101fe4:	6a 00                	push   $0x0
  101fe6:	6a 50                	push   $0x50
  101fe8:	e9 15 fd ff ff       	jmp    101d02 <__alltraps>

00101fed <vector81>:
  101fed:	6a 00                	push   $0x0
  101fef:	6a 51                	push   $0x51
  101ff1:	e9 0c fd ff ff       	jmp    101d02 <__alltraps>

00101ff6 <vector82>:
  101ff6:	6a 00                	push   $0x0
  101ff8:	6a 52                	push   $0x52
  101ffa:	e9 03 fd ff ff       	jmp    101d02 <__alltraps>

00101fff <vector83>:
  101fff:	6a 00                	push   $0x0
  102001:	6a 53                	push   $0x53
  102003:	e9 fa fc ff ff       	jmp    101d02 <__alltraps>

00102008 <vector84>:
  102008:	6a 00                	push   $0x0
  10200a:	6a 54                	push   $0x54
  10200c:	e9 f1 fc ff ff       	jmp    101d02 <__alltraps>

00102011 <vector85>:
  102011:	6a 00                	push   $0x0
  102013:	6a 55                	push   $0x55
  102015:	e9 e8 fc ff ff       	jmp    101d02 <__alltraps>

0010201a <vector86>:
  10201a:	6a 00                	push   $0x0
  10201c:	6a 56                	push   $0x56
  10201e:	e9 df fc ff ff       	jmp    101d02 <__alltraps>

00102023 <vector87>:
  102023:	6a 00                	push   $0x0
  102025:	6a 57                	push   $0x57
  102027:	e9 d6 fc ff ff       	jmp    101d02 <__alltraps>

0010202c <vector88>:
  10202c:	6a 00                	push   $0x0
  10202e:	6a 58                	push   $0x58
  102030:	e9 cd fc ff ff       	jmp    101d02 <__alltraps>

00102035 <vector89>:
  102035:	6a 00                	push   $0x0
  102037:	6a 59                	push   $0x59
  102039:	e9 c4 fc ff ff       	jmp    101d02 <__alltraps>

0010203e <vector90>:
  10203e:	6a 00                	push   $0x0
  102040:	6a 5a                	push   $0x5a
  102042:	e9 bb fc ff ff       	jmp    101d02 <__alltraps>

00102047 <vector91>:
  102047:	6a 00                	push   $0x0
  102049:	6a 5b                	push   $0x5b
  10204b:	e9 b2 fc ff ff       	jmp    101d02 <__alltraps>

00102050 <vector92>:
  102050:	6a 00                	push   $0x0
  102052:	6a 5c                	push   $0x5c
  102054:	e9 a9 fc ff ff       	jmp    101d02 <__alltraps>

00102059 <vector93>:
  102059:	6a 00                	push   $0x0
  10205b:	6a 5d                	push   $0x5d
  10205d:	e9 a0 fc ff ff       	jmp    101d02 <__alltraps>

00102062 <vector94>:
  102062:	6a 00                	push   $0x0
  102064:	6a 5e                	push   $0x5e
  102066:	e9 97 fc ff ff       	jmp    101d02 <__alltraps>

0010206b <vector95>:
  10206b:	6a 00                	push   $0x0
  10206d:	6a 5f                	push   $0x5f
  10206f:	e9 8e fc ff ff       	jmp    101d02 <__alltraps>

00102074 <vector96>:
  102074:	6a 00                	push   $0x0
  102076:	6a 60                	push   $0x60
  102078:	e9 85 fc ff ff       	jmp    101d02 <__alltraps>

0010207d <vector97>:
  10207d:	6a 00                	push   $0x0
  10207f:	6a 61                	push   $0x61
  102081:	e9 7c fc ff ff       	jmp    101d02 <__alltraps>

00102086 <vector98>:
  102086:	6a 00                	push   $0x0
  102088:	6a 62                	push   $0x62
  10208a:	e9 73 fc ff ff       	jmp    101d02 <__alltraps>

0010208f <vector99>:
  10208f:	6a 00                	push   $0x0
  102091:	6a 63                	push   $0x63
  102093:	e9 6a fc ff ff       	jmp    101d02 <__alltraps>

00102098 <vector100>:
  102098:	6a 00                	push   $0x0
  10209a:	6a 64                	push   $0x64
  10209c:	e9 61 fc ff ff       	jmp    101d02 <__alltraps>

001020a1 <vector101>:
  1020a1:	6a 00                	push   $0x0
  1020a3:	6a 65                	push   $0x65
  1020a5:	e9 58 fc ff ff       	jmp    101d02 <__alltraps>

001020aa <vector102>:
  1020aa:	6a 00                	push   $0x0
  1020ac:	6a 66                	push   $0x66
  1020ae:	e9 4f fc ff ff       	jmp    101d02 <__alltraps>

001020b3 <vector103>:
  1020b3:	6a 00                	push   $0x0
  1020b5:	6a 67                	push   $0x67
  1020b7:	e9 46 fc ff ff       	jmp    101d02 <__alltraps>

001020bc <vector104>:
  1020bc:	6a 00                	push   $0x0
  1020be:	6a 68                	push   $0x68
  1020c0:	e9 3d fc ff ff       	jmp    101d02 <__alltraps>

001020c5 <vector105>:
  1020c5:	6a 00                	push   $0x0
  1020c7:	6a 69                	push   $0x69
  1020c9:	e9 34 fc ff ff       	jmp    101d02 <__alltraps>

001020ce <vector106>:
  1020ce:	6a 00                	push   $0x0
  1020d0:	6a 6a                	push   $0x6a
  1020d2:	e9 2b fc ff ff       	jmp    101d02 <__alltraps>

001020d7 <vector107>:
  1020d7:	6a 00                	push   $0x0
  1020d9:	6a 6b                	push   $0x6b
  1020db:	e9 22 fc ff ff       	jmp    101d02 <__alltraps>

001020e0 <vector108>:
  1020e0:	6a 00                	push   $0x0
  1020e2:	6a 6c                	push   $0x6c
  1020e4:	e9 19 fc ff ff       	jmp    101d02 <__alltraps>

001020e9 <vector109>:
  1020e9:	6a 00                	push   $0x0
  1020eb:	6a 6d                	push   $0x6d
  1020ed:	e9 10 fc ff ff       	jmp    101d02 <__alltraps>

001020f2 <vector110>:
  1020f2:	6a 00                	push   $0x0
  1020f4:	6a 6e                	push   $0x6e
  1020f6:	e9 07 fc ff ff       	jmp    101d02 <__alltraps>

001020fb <vector111>:
  1020fb:	6a 00                	push   $0x0
  1020fd:	6a 6f                	push   $0x6f
  1020ff:	e9 fe fb ff ff       	jmp    101d02 <__alltraps>

00102104 <vector112>:
  102104:	6a 00                	push   $0x0
  102106:	6a 70                	push   $0x70
  102108:	e9 f5 fb ff ff       	jmp    101d02 <__alltraps>

0010210d <vector113>:
  10210d:	6a 00                	push   $0x0
  10210f:	6a 71                	push   $0x71
  102111:	e9 ec fb ff ff       	jmp    101d02 <__alltraps>

00102116 <vector114>:
  102116:	6a 00                	push   $0x0
  102118:	6a 72                	push   $0x72
  10211a:	e9 e3 fb ff ff       	jmp    101d02 <__alltraps>

0010211f <vector115>:
  10211f:	6a 00                	push   $0x0
  102121:	6a 73                	push   $0x73
  102123:	e9 da fb ff ff       	jmp    101d02 <__alltraps>

00102128 <vector116>:
  102128:	6a 00                	push   $0x0
  10212a:	6a 74                	push   $0x74
  10212c:	e9 d1 fb ff ff       	jmp    101d02 <__alltraps>

00102131 <vector117>:
  102131:	6a 00                	push   $0x0
  102133:	6a 75                	push   $0x75
  102135:	e9 c8 fb ff ff       	jmp    101d02 <__alltraps>

0010213a <vector118>:
  10213a:	6a 00                	push   $0x0
  10213c:	6a 76                	push   $0x76
  10213e:	e9 bf fb ff ff       	jmp    101d02 <__alltraps>

00102143 <vector119>:
  102143:	6a 00                	push   $0x0
  102145:	6a 77                	push   $0x77
  102147:	e9 b6 fb ff ff       	jmp    101d02 <__alltraps>

0010214c <vector120>:
  10214c:	6a 00                	push   $0x0
  10214e:	6a 78                	push   $0x78
  102150:	e9 ad fb ff ff       	jmp    101d02 <__alltraps>

00102155 <vector121>:
  102155:	6a 00                	push   $0x0
  102157:	6a 79                	push   $0x79
  102159:	e9 a4 fb ff ff       	jmp    101d02 <__alltraps>

0010215e <vector122>:
  10215e:	6a 00                	push   $0x0
  102160:	6a 7a                	push   $0x7a
  102162:	e9 9b fb ff ff       	jmp    101d02 <__alltraps>

00102167 <vector123>:
  102167:	6a 00                	push   $0x0
  102169:	6a 7b                	push   $0x7b
  10216b:	e9 92 fb ff ff       	jmp    101d02 <__alltraps>

00102170 <vector124>:
  102170:	6a 00                	push   $0x0
  102172:	6a 7c                	push   $0x7c
  102174:	e9 89 fb ff ff       	jmp    101d02 <__alltraps>

00102179 <vector125>:
  102179:	6a 00                	push   $0x0
  10217b:	6a 7d                	push   $0x7d
  10217d:	e9 80 fb ff ff       	jmp    101d02 <__alltraps>

00102182 <vector126>:
  102182:	6a 00                	push   $0x0
  102184:	6a 7e                	push   $0x7e
  102186:	e9 77 fb ff ff       	jmp    101d02 <__alltraps>

0010218b <vector127>:
  10218b:	6a 00                	push   $0x0
  10218d:	6a 7f                	push   $0x7f
  10218f:	e9 6e fb ff ff       	jmp    101d02 <__alltraps>

00102194 <vector128>:
  102194:	6a 00                	push   $0x0
  102196:	68 80 00 00 00       	push   $0x80
  10219b:	e9 62 fb ff ff       	jmp    101d02 <__alltraps>

001021a0 <vector129>:
  1021a0:	6a 00                	push   $0x0
  1021a2:	68 81 00 00 00       	push   $0x81
  1021a7:	e9 56 fb ff ff       	jmp    101d02 <__alltraps>

001021ac <vector130>:
  1021ac:	6a 00                	push   $0x0
  1021ae:	68 82 00 00 00       	push   $0x82
  1021b3:	e9 4a fb ff ff       	jmp    101d02 <__alltraps>

001021b8 <vector131>:
  1021b8:	6a 00                	push   $0x0
  1021ba:	68 83 00 00 00       	push   $0x83
  1021bf:	e9 3e fb ff ff       	jmp    101d02 <__alltraps>

001021c4 <vector132>:
  1021c4:	6a 00                	push   $0x0
  1021c6:	68 84 00 00 00       	push   $0x84
  1021cb:	e9 32 fb ff ff       	jmp    101d02 <__alltraps>

001021d0 <vector133>:
  1021d0:	6a 00                	push   $0x0
  1021d2:	68 85 00 00 00       	push   $0x85
  1021d7:	e9 26 fb ff ff       	jmp    101d02 <__alltraps>

001021dc <vector134>:
  1021dc:	6a 00                	push   $0x0
  1021de:	68 86 00 00 00       	push   $0x86
  1021e3:	e9 1a fb ff ff       	jmp    101d02 <__alltraps>

001021e8 <vector135>:
  1021e8:	6a 00                	push   $0x0
  1021ea:	68 87 00 00 00       	push   $0x87
  1021ef:	e9 0e fb ff ff       	jmp    101d02 <__alltraps>

001021f4 <vector136>:
  1021f4:	6a 00                	push   $0x0
  1021f6:	68 88 00 00 00       	push   $0x88
  1021fb:	e9 02 fb ff ff       	jmp    101d02 <__alltraps>

00102200 <vector137>:
  102200:	6a 00                	push   $0x0
  102202:	68 89 00 00 00       	push   $0x89
  102207:	e9 f6 fa ff ff       	jmp    101d02 <__alltraps>

0010220c <vector138>:
  10220c:	6a 00                	push   $0x0
  10220e:	68 8a 00 00 00       	push   $0x8a
  102213:	e9 ea fa ff ff       	jmp    101d02 <__alltraps>

00102218 <vector139>:
  102218:	6a 00                	push   $0x0
  10221a:	68 8b 00 00 00       	push   $0x8b
  10221f:	e9 de fa ff ff       	jmp    101d02 <__alltraps>

00102224 <vector140>:
  102224:	6a 00                	push   $0x0
  102226:	68 8c 00 00 00       	push   $0x8c
  10222b:	e9 d2 fa ff ff       	jmp    101d02 <__alltraps>

00102230 <vector141>:
  102230:	6a 00                	push   $0x0
  102232:	68 8d 00 00 00       	push   $0x8d
  102237:	e9 c6 fa ff ff       	jmp    101d02 <__alltraps>

0010223c <vector142>:
  10223c:	6a 00                	push   $0x0
  10223e:	68 8e 00 00 00       	push   $0x8e
  102243:	e9 ba fa ff ff       	jmp    101d02 <__alltraps>

00102248 <vector143>:
  102248:	6a 00                	push   $0x0
  10224a:	68 8f 00 00 00       	push   $0x8f
  10224f:	e9 ae fa ff ff       	jmp    101d02 <__alltraps>

00102254 <vector144>:
  102254:	6a 00                	push   $0x0
  102256:	68 90 00 00 00       	push   $0x90
  10225b:	e9 a2 fa ff ff       	jmp    101d02 <__alltraps>

00102260 <vector145>:
  102260:	6a 00                	push   $0x0
  102262:	68 91 00 00 00       	push   $0x91
  102267:	e9 96 fa ff ff       	jmp    101d02 <__alltraps>

0010226c <vector146>:
  10226c:	6a 00                	push   $0x0
  10226e:	68 92 00 00 00       	push   $0x92
  102273:	e9 8a fa ff ff       	jmp    101d02 <__alltraps>

00102278 <vector147>:
  102278:	6a 00                	push   $0x0
  10227a:	68 93 00 00 00       	push   $0x93
  10227f:	e9 7e fa ff ff       	jmp    101d02 <__alltraps>

00102284 <vector148>:
  102284:	6a 00                	push   $0x0
  102286:	68 94 00 00 00       	push   $0x94
  10228b:	e9 72 fa ff ff       	jmp    101d02 <__alltraps>

00102290 <vector149>:
  102290:	6a 00                	push   $0x0
  102292:	68 95 00 00 00       	push   $0x95
  102297:	e9 66 fa ff ff       	jmp    101d02 <__alltraps>

0010229c <vector150>:
  10229c:	6a 00                	push   $0x0
  10229e:	68 96 00 00 00       	push   $0x96
  1022a3:	e9 5a fa ff ff       	jmp    101d02 <__alltraps>

001022a8 <vector151>:
  1022a8:	6a 00                	push   $0x0
  1022aa:	68 97 00 00 00       	push   $0x97
  1022af:	e9 4e fa ff ff       	jmp    101d02 <__alltraps>

001022b4 <vector152>:
  1022b4:	6a 00                	push   $0x0
  1022b6:	68 98 00 00 00       	push   $0x98
  1022bb:	e9 42 fa ff ff       	jmp    101d02 <__alltraps>

001022c0 <vector153>:
  1022c0:	6a 00                	push   $0x0
  1022c2:	68 99 00 00 00       	push   $0x99
  1022c7:	e9 36 fa ff ff       	jmp    101d02 <__alltraps>

001022cc <vector154>:
  1022cc:	6a 00                	push   $0x0
  1022ce:	68 9a 00 00 00       	push   $0x9a
  1022d3:	e9 2a fa ff ff       	jmp    101d02 <__alltraps>

001022d8 <vector155>:
  1022d8:	6a 00                	push   $0x0
  1022da:	68 9b 00 00 00       	push   $0x9b
  1022df:	e9 1e fa ff ff       	jmp    101d02 <__alltraps>

001022e4 <vector156>:
  1022e4:	6a 00                	push   $0x0
  1022e6:	68 9c 00 00 00       	push   $0x9c
  1022eb:	e9 12 fa ff ff       	jmp    101d02 <__alltraps>

001022f0 <vector157>:
  1022f0:	6a 00                	push   $0x0
  1022f2:	68 9d 00 00 00       	push   $0x9d
  1022f7:	e9 06 fa ff ff       	jmp    101d02 <__alltraps>

001022fc <vector158>:
  1022fc:	6a 00                	push   $0x0
  1022fe:	68 9e 00 00 00       	push   $0x9e
  102303:	e9 fa f9 ff ff       	jmp    101d02 <__alltraps>

00102308 <vector159>:
  102308:	6a 00                	push   $0x0
  10230a:	68 9f 00 00 00       	push   $0x9f
  10230f:	e9 ee f9 ff ff       	jmp    101d02 <__alltraps>

00102314 <vector160>:
  102314:	6a 00                	push   $0x0
  102316:	68 a0 00 00 00       	push   $0xa0
  10231b:	e9 e2 f9 ff ff       	jmp    101d02 <__alltraps>

00102320 <vector161>:
  102320:	6a 00                	push   $0x0
  102322:	68 a1 00 00 00       	push   $0xa1
  102327:	e9 d6 f9 ff ff       	jmp    101d02 <__alltraps>

0010232c <vector162>:
  10232c:	6a 00                	push   $0x0
  10232e:	68 a2 00 00 00       	push   $0xa2
  102333:	e9 ca f9 ff ff       	jmp    101d02 <__alltraps>

00102338 <vector163>:
  102338:	6a 00                	push   $0x0
  10233a:	68 a3 00 00 00       	push   $0xa3
  10233f:	e9 be f9 ff ff       	jmp    101d02 <__alltraps>

00102344 <vector164>:
  102344:	6a 00                	push   $0x0
  102346:	68 a4 00 00 00       	push   $0xa4
  10234b:	e9 b2 f9 ff ff       	jmp    101d02 <__alltraps>

00102350 <vector165>:
  102350:	6a 00                	push   $0x0
  102352:	68 a5 00 00 00       	push   $0xa5
  102357:	e9 a6 f9 ff ff       	jmp    101d02 <__alltraps>

0010235c <vector166>:
  10235c:	6a 00                	push   $0x0
  10235e:	68 a6 00 00 00       	push   $0xa6
  102363:	e9 9a f9 ff ff       	jmp    101d02 <__alltraps>

00102368 <vector167>:
  102368:	6a 00                	push   $0x0
  10236a:	68 a7 00 00 00       	push   $0xa7
  10236f:	e9 8e f9 ff ff       	jmp    101d02 <__alltraps>

00102374 <vector168>:
  102374:	6a 00                	push   $0x0
  102376:	68 a8 00 00 00       	push   $0xa8
  10237b:	e9 82 f9 ff ff       	jmp    101d02 <__alltraps>

00102380 <vector169>:
  102380:	6a 00                	push   $0x0
  102382:	68 a9 00 00 00       	push   $0xa9
  102387:	e9 76 f9 ff ff       	jmp    101d02 <__alltraps>

0010238c <vector170>:
  10238c:	6a 00                	push   $0x0
  10238e:	68 aa 00 00 00       	push   $0xaa
  102393:	e9 6a f9 ff ff       	jmp    101d02 <__alltraps>

00102398 <vector171>:
  102398:	6a 00                	push   $0x0
  10239a:	68 ab 00 00 00       	push   $0xab
  10239f:	e9 5e f9 ff ff       	jmp    101d02 <__alltraps>

001023a4 <vector172>:
  1023a4:	6a 00                	push   $0x0
  1023a6:	68 ac 00 00 00       	push   $0xac
  1023ab:	e9 52 f9 ff ff       	jmp    101d02 <__alltraps>

001023b0 <vector173>:
  1023b0:	6a 00                	push   $0x0
  1023b2:	68 ad 00 00 00       	push   $0xad
  1023b7:	e9 46 f9 ff ff       	jmp    101d02 <__alltraps>

001023bc <vector174>:
  1023bc:	6a 00                	push   $0x0
  1023be:	68 ae 00 00 00       	push   $0xae
  1023c3:	e9 3a f9 ff ff       	jmp    101d02 <__alltraps>

001023c8 <vector175>:
  1023c8:	6a 00                	push   $0x0
  1023ca:	68 af 00 00 00       	push   $0xaf
  1023cf:	e9 2e f9 ff ff       	jmp    101d02 <__alltraps>

001023d4 <vector176>:
  1023d4:	6a 00                	push   $0x0
  1023d6:	68 b0 00 00 00       	push   $0xb0
  1023db:	e9 22 f9 ff ff       	jmp    101d02 <__alltraps>

001023e0 <vector177>:
  1023e0:	6a 00                	push   $0x0
  1023e2:	68 b1 00 00 00       	push   $0xb1
  1023e7:	e9 16 f9 ff ff       	jmp    101d02 <__alltraps>

001023ec <vector178>:
  1023ec:	6a 00                	push   $0x0
  1023ee:	68 b2 00 00 00       	push   $0xb2
  1023f3:	e9 0a f9 ff ff       	jmp    101d02 <__alltraps>

001023f8 <vector179>:
  1023f8:	6a 00                	push   $0x0
  1023fa:	68 b3 00 00 00       	push   $0xb3
  1023ff:	e9 fe f8 ff ff       	jmp    101d02 <__alltraps>

00102404 <vector180>:
  102404:	6a 00                	push   $0x0
  102406:	68 b4 00 00 00       	push   $0xb4
  10240b:	e9 f2 f8 ff ff       	jmp    101d02 <__alltraps>

00102410 <vector181>:
  102410:	6a 00                	push   $0x0
  102412:	68 b5 00 00 00       	push   $0xb5
  102417:	e9 e6 f8 ff ff       	jmp    101d02 <__alltraps>

0010241c <vector182>:
  10241c:	6a 00                	push   $0x0
  10241e:	68 b6 00 00 00       	push   $0xb6
  102423:	e9 da f8 ff ff       	jmp    101d02 <__alltraps>

00102428 <vector183>:
  102428:	6a 00                	push   $0x0
  10242a:	68 b7 00 00 00       	push   $0xb7
  10242f:	e9 ce f8 ff ff       	jmp    101d02 <__alltraps>

00102434 <vector184>:
  102434:	6a 00                	push   $0x0
  102436:	68 b8 00 00 00       	push   $0xb8
  10243b:	e9 c2 f8 ff ff       	jmp    101d02 <__alltraps>

00102440 <vector185>:
  102440:	6a 00                	push   $0x0
  102442:	68 b9 00 00 00       	push   $0xb9
  102447:	e9 b6 f8 ff ff       	jmp    101d02 <__alltraps>

0010244c <vector186>:
  10244c:	6a 00                	push   $0x0
  10244e:	68 ba 00 00 00       	push   $0xba
  102453:	e9 aa f8 ff ff       	jmp    101d02 <__alltraps>

00102458 <vector187>:
  102458:	6a 00                	push   $0x0
  10245a:	68 bb 00 00 00       	push   $0xbb
  10245f:	e9 9e f8 ff ff       	jmp    101d02 <__alltraps>

00102464 <vector188>:
  102464:	6a 00                	push   $0x0
  102466:	68 bc 00 00 00       	push   $0xbc
  10246b:	e9 92 f8 ff ff       	jmp    101d02 <__alltraps>

00102470 <vector189>:
  102470:	6a 00                	push   $0x0
  102472:	68 bd 00 00 00       	push   $0xbd
  102477:	e9 86 f8 ff ff       	jmp    101d02 <__alltraps>

0010247c <vector190>:
  10247c:	6a 00                	push   $0x0
  10247e:	68 be 00 00 00       	push   $0xbe
  102483:	e9 7a f8 ff ff       	jmp    101d02 <__alltraps>

00102488 <vector191>:
  102488:	6a 00                	push   $0x0
  10248a:	68 bf 00 00 00       	push   $0xbf
  10248f:	e9 6e f8 ff ff       	jmp    101d02 <__alltraps>

00102494 <vector192>:
  102494:	6a 00                	push   $0x0
  102496:	68 c0 00 00 00       	push   $0xc0
  10249b:	e9 62 f8 ff ff       	jmp    101d02 <__alltraps>

001024a0 <vector193>:
  1024a0:	6a 00                	push   $0x0
  1024a2:	68 c1 00 00 00       	push   $0xc1
  1024a7:	e9 56 f8 ff ff       	jmp    101d02 <__alltraps>

001024ac <vector194>:
  1024ac:	6a 00                	push   $0x0
  1024ae:	68 c2 00 00 00       	push   $0xc2
  1024b3:	e9 4a f8 ff ff       	jmp    101d02 <__alltraps>

001024b8 <vector195>:
  1024b8:	6a 00                	push   $0x0
  1024ba:	68 c3 00 00 00       	push   $0xc3
  1024bf:	e9 3e f8 ff ff       	jmp    101d02 <__alltraps>

001024c4 <vector196>:
  1024c4:	6a 00                	push   $0x0
  1024c6:	68 c4 00 00 00       	push   $0xc4
  1024cb:	e9 32 f8 ff ff       	jmp    101d02 <__alltraps>

001024d0 <vector197>:
  1024d0:	6a 00                	push   $0x0
  1024d2:	68 c5 00 00 00       	push   $0xc5
  1024d7:	e9 26 f8 ff ff       	jmp    101d02 <__alltraps>

001024dc <vector198>:
  1024dc:	6a 00                	push   $0x0
  1024de:	68 c6 00 00 00       	push   $0xc6
  1024e3:	e9 1a f8 ff ff       	jmp    101d02 <__alltraps>

001024e8 <vector199>:
  1024e8:	6a 00                	push   $0x0
  1024ea:	68 c7 00 00 00       	push   $0xc7
  1024ef:	e9 0e f8 ff ff       	jmp    101d02 <__alltraps>

001024f4 <vector200>:
  1024f4:	6a 00                	push   $0x0
  1024f6:	68 c8 00 00 00       	push   $0xc8
  1024fb:	e9 02 f8 ff ff       	jmp    101d02 <__alltraps>

00102500 <vector201>:
  102500:	6a 00                	push   $0x0
  102502:	68 c9 00 00 00       	push   $0xc9
  102507:	e9 f6 f7 ff ff       	jmp    101d02 <__alltraps>

0010250c <vector202>:
  10250c:	6a 00                	push   $0x0
  10250e:	68 ca 00 00 00       	push   $0xca
  102513:	e9 ea f7 ff ff       	jmp    101d02 <__alltraps>

00102518 <vector203>:
  102518:	6a 00                	push   $0x0
  10251a:	68 cb 00 00 00       	push   $0xcb
  10251f:	e9 de f7 ff ff       	jmp    101d02 <__alltraps>

00102524 <vector204>:
  102524:	6a 00                	push   $0x0
  102526:	68 cc 00 00 00       	push   $0xcc
  10252b:	e9 d2 f7 ff ff       	jmp    101d02 <__alltraps>

00102530 <vector205>:
  102530:	6a 00                	push   $0x0
  102532:	68 cd 00 00 00       	push   $0xcd
  102537:	e9 c6 f7 ff ff       	jmp    101d02 <__alltraps>

0010253c <vector206>:
  10253c:	6a 00                	push   $0x0
  10253e:	68 ce 00 00 00       	push   $0xce
  102543:	e9 ba f7 ff ff       	jmp    101d02 <__alltraps>

00102548 <vector207>:
  102548:	6a 00                	push   $0x0
  10254a:	68 cf 00 00 00       	push   $0xcf
  10254f:	e9 ae f7 ff ff       	jmp    101d02 <__alltraps>

00102554 <vector208>:
  102554:	6a 00                	push   $0x0
  102556:	68 d0 00 00 00       	push   $0xd0
  10255b:	e9 a2 f7 ff ff       	jmp    101d02 <__alltraps>

00102560 <vector209>:
  102560:	6a 00                	push   $0x0
  102562:	68 d1 00 00 00       	push   $0xd1
  102567:	e9 96 f7 ff ff       	jmp    101d02 <__alltraps>

0010256c <vector210>:
  10256c:	6a 00                	push   $0x0
  10256e:	68 d2 00 00 00       	push   $0xd2
  102573:	e9 8a f7 ff ff       	jmp    101d02 <__alltraps>

00102578 <vector211>:
  102578:	6a 00                	push   $0x0
  10257a:	68 d3 00 00 00       	push   $0xd3
  10257f:	e9 7e f7 ff ff       	jmp    101d02 <__alltraps>

00102584 <vector212>:
  102584:	6a 00                	push   $0x0
  102586:	68 d4 00 00 00       	push   $0xd4
  10258b:	e9 72 f7 ff ff       	jmp    101d02 <__alltraps>

00102590 <vector213>:
  102590:	6a 00                	push   $0x0
  102592:	68 d5 00 00 00       	push   $0xd5
  102597:	e9 66 f7 ff ff       	jmp    101d02 <__alltraps>

0010259c <vector214>:
  10259c:	6a 00                	push   $0x0
  10259e:	68 d6 00 00 00       	push   $0xd6
  1025a3:	e9 5a f7 ff ff       	jmp    101d02 <__alltraps>

001025a8 <vector215>:
  1025a8:	6a 00                	push   $0x0
  1025aa:	68 d7 00 00 00       	push   $0xd7
  1025af:	e9 4e f7 ff ff       	jmp    101d02 <__alltraps>

001025b4 <vector216>:
  1025b4:	6a 00                	push   $0x0
  1025b6:	68 d8 00 00 00       	push   $0xd8
  1025bb:	e9 42 f7 ff ff       	jmp    101d02 <__alltraps>

001025c0 <vector217>:
  1025c0:	6a 00                	push   $0x0
  1025c2:	68 d9 00 00 00       	push   $0xd9
  1025c7:	e9 36 f7 ff ff       	jmp    101d02 <__alltraps>

001025cc <vector218>:
  1025cc:	6a 00                	push   $0x0
  1025ce:	68 da 00 00 00       	push   $0xda
  1025d3:	e9 2a f7 ff ff       	jmp    101d02 <__alltraps>

001025d8 <vector219>:
  1025d8:	6a 00                	push   $0x0
  1025da:	68 db 00 00 00       	push   $0xdb
  1025df:	e9 1e f7 ff ff       	jmp    101d02 <__alltraps>

001025e4 <vector220>:
  1025e4:	6a 00                	push   $0x0
  1025e6:	68 dc 00 00 00       	push   $0xdc
  1025eb:	e9 12 f7 ff ff       	jmp    101d02 <__alltraps>

001025f0 <vector221>:
  1025f0:	6a 00                	push   $0x0
  1025f2:	68 dd 00 00 00       	push   $0xdd
  1025f7:	e9 06 f7 ff ff       	jmp    101d02 <__alltraps>

001025fc <vector222>:
  1025fc:	6a 00                	push   $0x0
  1025fe:	68 de 00 00 00       	push   $0xde
  102603:	e9 fa f6 ff ff       	jmp    101d02 <__alltraps>

00102608 <vector223>:
  102608:	6a 00                	push   $0x0
  10260a:	68 df 00 00 00       	push   $0xdf
  10260f:	e9 ee f6 ff ff       	jmp    101d02 <__alltraps>

00102614 <vector224>:
  102614:	6a 00                	push   $0x0
  102616:	68 e0 00 00 00       	push   $0xe0
  10261b:	e9 e2 f6 ff ff       	jmp    101d02 <__alltraps>

00102620 <vector225>:
  102620:	6a 00                	push   $0x0
  102622:	68 e1 00 00 00       	push   $0xe1
  102627:	e9 d6 f6 ff ff       	jmp    101d02 <__alltraps>

0010262c <vector226>:
  10262c:	6a 00                	push   $0x0
  10262e:	68 e2 00 00 00       	push   $0xe2
  102633:	e9 ca f6 ff ff       	jmp    101d02 <__alltraps>

00102638 <vector227>:
  102638:	6a 00                	push   $0x0
  10263a:	68 e3 00 00 00       	push   $0xe3
  10263f:	e9 be f6 ff ff       	jmp    101d02 <__alltraps>

00102644 <vector228>:
  102644:	6a 00                	push   $0x0
  102646:	68 e4 00 00 00       	push   $0xe4
  10264b:	e9 b2 f6 ff ff       	jmp    101d02 <__alltraps>

00102650 <vector229>:
  102650:	6a 00                	push   $0x0
  102652:	68 e5 00 00 00       	push   $0xe5
  102657:	e9 a6 f6 ff ff       	jmp    101d02 <__alltraps>

0010265c <vector230>:
  10265c:	6a 00                	push   $0x0
  10265e:	68 e6 00 00 00       	push   $0xe6
  102663:	e9 9a f6 ff ff       	jmp    101d02 <__alltraps>

00102668 <vector231>:
  102668:	6a 00                	push   $0x0
  10266a:	68 e7 00 00 00       	push   $0xe7
  10266f:	e9 8e f6 ff ff       	jmp    101d02 <__alltraps>

00102674 <vector232>:
  102674:	6a 00                	push   $0x0
  102676:	68 e8 00 00 00       	push   $0xe8
  10267b:	e9 82 f6 ff ff       	jmp    101d02 <__alltraps>

00102680 <vector233>:
  102680:	6a 00                	push   $0x0
  102682:	68 e9 00 00 00       	push   $0xe9
  102687:	e9 76 f6 ff ff       	jmp    101d02 <__alltraps>

0010268c <vector234>:
  10268c:	6a 00                	push   $0x0
  10268e:	68 ea 00 00 00       	push   $0xea
  102693:	e9 6a f6 ff ff       	jmp    101d02 <__alltraps>

00102698 <vector235>:
  102698:	6a 00                	push   $0x0
  10269a:	68 eb 00 00 00       	push   $0xeb
  10269f:	e9 5e f6 ff ff       	jmp    101d02 <__alltraps>

001026a4 <vector236>:
  1026a4:	6a 00                	push   $0x0
  1026a6:	68 ec 00 00 00       	push   $0xec
  1026ab:	e9 52 f6 ff ff       	jmp    101d02 <__alltraps>

001026b0 <vector237>:
  1026b0:	6a 00                	push   $0x0
  1026b2:	68 ed 00 00 00       	push   $0xed
  1026b7:	e9 46 f6 ff ff       	jmp    101d02 <__alltraps>

001026bc <vector238>:
  1026bc:	6a 00                	push   $0x0
  1026be:	68 ee 00 00 00       	push   $0xee
  1026c3:	e9 3a f6 ff ff       	jmp    101d02 <__alltraps>

001026c8 <vector239>:
  1026c8:	6a 00                	push   $0x0
  1026ca:	68 ef 00 00 00       	push   $0xef
  1026cf:	e9 2e f6 ff ff       	jmp    101d02 <__alltraps>

001026d4 <vector240>:
  1026d4:	6a 00                	push   $0x0
  1026d6:	68 f0 00 00 00       	push   $0xf0
  1026db:	e9 22 f6 ff ff       	jmp    101d02 <__alltraps>

001026e0 <vector241>:
  1026e0:	6a 00                	push   $0x0
  1026e2:	68 f1 00 00 00       	push   $0xf1
  1026e7:	e9 16 f6 ff ff       	jmp    101d02 <__alltraps>

001026ec <vector242>:
  1026ec:	6a 00                	push   $0x0
  1026ee:	68 f2 00 00 00       	push   $0xf2
  1026f3:	e9 0a f6 ff ff       	jmp    101d02 <__alltraps>

001026f8 <vector243>:
  1026f8:	6a 00                	push   $0x0
  1026fa:	68 f3 00 00 00       	push   $0xf3
  1026ff:	e9 fe f5 ff ff       	jmp    101d02 <__alltraps>

00102704 <vector244>:
  102704:	6a 00                	push   $0x0
  102706:	68 f4 00 00 00       	push   $0xf4
  10270b:	e9 f2 f5 ff ff       	jmp    101d02 <__alltraps>

00102710 <vector245>:
  102710:	6a 00                	push   $0x0
  102712:	68 f5 00 00 00       	push   $0xf5
  102717:	e9 e6 f5 ff ff       	jmp    101d02 <__alltraps>

0010271c <vector246>:
  10271c:	6a 00                	push   $0x0
  10271e:	68 f6 00 00 00       	push   $0xf6
  102723:	e9 da f5 ff ff       	jmp    101d02 <__alltraps>

00102728 <vector247>:
  102728:	6a 00                	push   $0x0
  10272a:	68 f7 00 00 00       	push   $0xf7
  10272f:	e9 ce f5 ff ff       	jmp    101d02 <__alltraps>

00102734 <vector248>:
  102734:	6a 00                	push   $0x0
  102736:	68 f8 00 00 00       	push   $0xf8
  10273b:	e9 c2 f5 ff ff       	jmp    101d02 <__alltraps>

00102740 <vector249>:
  102740:	6a 00                	push   $0x0
  102742:	68 f9 00 00 00       	push   $0xf9
  102747:	e9 b6 f5 ff ff       	jmp    101d02 <__alltraps>

0010274c <vector250>:
  10274c:	6a 00                	push   $0x0
  10274e:	68 fa 00 00 00       	push   $0xfa
  102753:	e9 aa f5 ff ff       	jmp    101d02 <__alltraps>

00102758 <vector251>:
  102758:	6a 00                	push   $0x0
  10275a:	68 fb 00 00 00       	push   $0xfb
  10275f:	e9 9e f5 ff ff       	jmp    101d02 <__alltraps>

00102764 <vector252>:
  102764:	6a 00                	push   $0x0
  102766:	68 fc 00 00 00       	push   $0xfc
  10276b:	e9 92 f5 ff ff       	jmp    101d02 <__alltraps>

00102770 <vector253>:
  102770:	6a 00                	push   $0x0
  102772:	68 fd 00 00 00       	push   $0xfd
  102777:	e9 86 f5 ff ff       	jmp    101d02 <__alltraps>

0010277c <vector254>:
  10277c:	6a 00                	push   $0x0
  10277e:	68 fe 00 00 00       	push   $0xfe
  102783:	e9 7a f5 ff ff       	jmp    101d02 <__alltraps>

00102788 <vector255>:
  102788:	6a 00                	push   $0x0
  10278a:	68 ff 00 00 00       	push   $0xff
  10278f:	e9 6e f5 ff ff       	jmp    101d02 <__alltraps>
  102794:	55                   	push   %ebp
  102795:	89 e5                	mov    %esp,%ebp
  102797:	8b 45 08             	mov    0x8(%ebp),%eax
  10279a:	0f 01 10             	lgdtl  (%eax)
  10279d:	b8 23 00 00 00       	mov    $0x23,%eax
  1027a2:	8e e8                	mov    %eax,%gs
  1027a4:	b8 23 00 00 00       	mov    $0x23,%eax
  1027a9:	8e e0                	mov    %eax,%fs
  1027ab:	b8 10 00 00 00       	mov    $0x10,%eax
  1027b0:	8e c0                	mov    %eax,%es
  1027b2:	b8 10 00 00 00       	mov    $0x10,%eax
  1027b7:	8e d8                	mov    %eax,%ds
  1027b9:	b8 10 00 00 00       	mov    $0x10,%eax
  1027be:	8e d0                	mov    %eax,%ss
  1027c0:	ea 98 27 10 00 08 00 	ljmp   $0x8,$0x102798
  1027c7:	5d                   	pop    %ebp
  1027c8:	c3                   	ret    
  1027c9:	55                   	push   %ebp
  1027ca:	89 e5                	mov    %esp,%ebp
  1027cc:	83 ec 10             	sub    $0x10,%esp
  1027cf:	b8 20 f9 10 00       	mov    $0x10f920,%eax
  1027d4:	05 00 04 00 00       	add    $0x400,%eax
  1027d9:	a3 a4 f8 10 00       	mov    %eax,0x10f8a4
  1027de:	66 c7 05 a8 f8 10 00 	movw   $0x10,0x10f8a8
  1027e5:	10 00 
  1027e7:	66 c7 05 08 ea 10 00 	movw   $0x68,0x10ea08
  1027ee:	68 00 
  1027f0:	b8 a0 f8 10 00       	mov    $0x10f8a0,%eax
  1027f5:	66 a3 0a ea 10 00    	mov    %ax,0x10ea0a
  1027fb:	b8 a0 f8 10 00       	mov    $0x10f8a0,%eax
  102800:	c1 e8 10             	shr    $0x10,%eax
  102803:	a2 0c ea 10 00       	mov    %al,0x10ea0c
  102808:	a0 0d ea 10 00       	mov    0x10ea0d,%al
  10280d:	83 e0 f0             	and    $0xfffffff0,%eax
  102810:	83 c8 09             	or     $0x9,%eax
  102813:	a2 0d ea 10 00       	mov    %al,0x10ea0d
  102818:	a0 0d ea 10 00       	mov    0x10ea0d,%al
  10281d:	83 c8 10             	or     $0x10,%eax
  102820:	a2 0d ea 10 00       	mov    %al,0x10ea0d
  102825:	a0 0d ea 10 00       	mov    0x10ea0d,%al
  10282a:	83 e0 9f             	and    $0xffffff9f,%eax
  10282d:	a2 0d ea 10 00       	mov    %al,0x10ea0d
  102832:	a0 0d ea 10 00       	mov    0x10ea0d,%al
  102837:	83 c8 80             	or     $0xffffff80,%eax
  10283a:	a2 0d ea 10 00       	mov    %al,0x10ea0d
  10283f:	a0 0e ea 10 00       	mov    0x10ea0e,%al
  102844:	83 e0 f0             	and    $0xfffffff0,%eax
  102847:	a2 0e ea 10 00       	mov    %al,0x10ea0e
  10284c:	a0 0e ea 10 00       	mov    0x10ea0e,%al
  102851:	83 e0 ef             	and    $0xffffffef,%eax
  102854:	a2 0e ea 10 00       	mov    %al,0x10ea0e
  102859:	a0 0e ea 10 00       	mov    0x10ea0e,%al
  10285e:	83 e0 df             	and    $0xffffffdf,%eax
  102861:	a2 0e ea 10 00       	mov    %al,0x10ea0e
  102866:	a0 0e ea 10 00       	mov    0x10ea0e,%al
  10286b:	83 c8 40             	or     $0x40,%eax
  10286e:	a2 0e ea 10 00       	mov    %al,0x10ea0e
  102873:	a0 0e ea 10 00       	mov    0x10ea0e,%al
  102878:	83 e0 7f             	and    $0x7f,%eax
  10287b:	a2 0e ea 10 00       	mov    %al,0x10ea0e
  102880:	b8 a0 f8 10 00       	mov    $0x10f8a0,%eax
  102885:	c1 e8 18             	shr    $0x18,%eax
  102888:	a2 0f ea 10 00       	mov    %al,0x10ea0f
  10288d:	a0 0d ea 10 00       	mov    0x10ea0d,%al
  102892:	83 e0 ef             	and    $0xffffffef,%eax
  102895:	a2 0d ea 10 00       	mov    %al,0x10ea0d
  10289a:	68 10 ea 10 00       	push   $0x10ea10
  10289f:	e8 f0 fe ff ff       	call   102794 <vector255+0xc>
  1028a4:	83 c4 04             	add    $0x4,%esp
  1028a7:	66 c7 45 fe 28 00    	movw   $0x28,-0x2(%ebp)
  1028ad:	66 8b 45 fe          	mov    -0x2(%ebp),%ax
  1028b1:	0f 00 d8             	ltr    %ax
  1028b4:	c9                   	leave  
  1028b5:	c3                   	ret    

001028b6 <pmm_init>:
  1028b6:	55                   	push   %ebp
  1028b7:	89 e5                	mov    %esp,%ebp
  1028b9:	e8 0b ff ff ff       	call   1027c9 <vector255+0x41>
  1028be:	5d                   	pop    %ebp
  1028bf:	c3                   	ret    
  1028c0:	55                   	push   %ebp
  1028c1:	89 e5                	mov    %esp,%ebp
  1028c3:	83 ec 38             	sub    $0x38,%esp
  1028c6:	8b 45 10             	mov    0x10(%ebp),%eax
  1028c9:	89 45 d0             	mov    %eax,-0x30(%ebp)
  1028cc:	8b 45 14             	mov    0x14(%ebp),%eax
  1028cf:	89 45 d4             	mov    %eax,-0x2c(%ebp)
  1028d2:	8b 45 d0             	mov    -0x30(%ebp),%eax
  1028d5:	8b 55 d4             	mov    -0x2c(%ebp),%edx
  1028d8:	89 45 e8             	mov    %eax,-0x18(%ebp)
  1028db:	89 55 ec             	mov    %edx,-0x14(%ebp)
  1028de:	8b 45 18             	mov    0x18(%ebp),%eax
  1028e1:	89 45 e4             	mov    %eax,-0x1c(%ebp)
  1028e4:	8b 45 e8             	mov    -0x18(%ebp),%eax
  1028e7:	8b 55 ec             	mov    -0x14(%ebp),%edx
  1028ea:	89 45 e0             	mov    %eax,-0x20(%ebp)
  1028ed:	89 55 f0             	mov    %edx,-0x10(%ebp)
  1028f0:	8b 45 f0             	mov    -0x10(%ebp),%eax
  1028f3:	89 45 f4             	mov    %eax,-0xc(%ebp)
  1028f6:	83 7d f0 00          	cmpl   $0x0,-0x10(%ebp)
  1028fa:	74 1c                	je     102918 <pmm_init+0x62>
  1028fc:	8b 45 f0             	mov    -0x10(%ebp),%eax
  1028ff:	ba 00 00 00 00       	mov    $0x0,%edx
  102904:	f7 75 e4             	divl   -0x1c(%ebp)
  102907:	89 55 f4             	mov    %edx,-0xc(%ebp)
  10290a:	8b 45 f0             	mov    -0x10(%ebp),%eax
  10290d:	ba 00 00 00 00       	mov    $0x0,%edx
  102912:	f7 75 e4             	divl   -0x1c(%ebp)
  102915:	89 45 f0             	mov    %eax,-0x10(%ebp)
  102918:	8b 45 e0             	mov    -0x20(%ebp),%eax
  10291b:	8b 55 f4             	mov    -0xc(%ebp),%edx
  10291e:	f7 75 e4             	divl   -0x1c(%ebp)
  102921:	89 45 e0             	mov    %eax,-0x20(%ebp)
  102924:	89 55 dc             	mov    %edx,-0x24(%ebp)
  102927:	8b 45 e0             	mov    -0x20(%ebp),%eax
  10292a:	8b 55 f0             	mov    -0x10(%ebp),%edx
  10292d:	89 45 e8             	mov    %eax,-0x18(%ebp)
  102930:	89 55 ec             	mov    %edx,-0x14(%ebp)
  102933:	8b 45 dc             	mov    -0x24(%ebp),%eax
  102936:	89 45 d8             	mov    %eax,-0x28(%ebp)
  102939:	8b 45 18             	mov    0x18(%ebp),%eax
  10293c:	ba 00 00 00 00       	mov    $0x0,%edx
  102941:	3b 55 d4             	cmp    -0x2c(%ebp),%edx
  102944:	77 3f                	ja     102985 <pmm_init+0xcf>
  102946:	3b 55 d4             	cmp    -0x2c(%ebp),%edx
  102949:	72 05                	jb     102950 <pmm_init+0x9a>
  10294b:	3b 45 d0             	cmp    -0x30(%ebp),%eax
  10294e:	77 35                	ja     102985 <pmm_init+0xcf>
  102950:	8b 45 1c             	mov    0x1c(%ebp),%eax
  102953:	48                   	dec    %eax
  102954:	83 ec 04             	sub    $0x4,%esp
  102957:	ff 75 20             	pushl  0x20(%ebp)
  10295a:	50                   	push   %eax
  10295b:	ff 75 18             	pushl  0x18(%ebp)
  10295e:	ff 75 ec             	pushl  -0x14(%ebp)
  102961:	ff 75 e8             	pushl  -0x18(%ebp)
  102964:	ff 75 0c             	pushl  0xc(%ebp)
  102967:	ff 75 08             	pushl  0x8(%ebp)
  10296a:	e8 51 ff ff ff       	call   1028c0 <pmm_init+0xa>
  10296f:	83 c4 20             	add    $0x20,%esp
  102972:	eb 1a                	jmp    10298e <pmm_init+0xd8>
  102974:	83 ec 08             	sub    $0x8,%esp
  102977:	ff 75 0c             	pushl  0xc(%ebp)
  10297a:	ff 75 20             	pushl  0x20(%ebp)
  10297d:	8b 45 08             	mov    0x8(%ebp),%eax
  102980:	ff d0                	call   *%eax
  102982:	83 c4 10             	add    $0x10,%esp
  102985:	ff 4d 1c             	decl   0x1c(%ebp)
  102988:	83 7d 1c 00          	cmpl   $0x0,0x1c(%ebp)
  10298c:	7f e6                	jg     102974 <pmm_init+0xbe>
  10298e:	8b 45 d8             	mov    -0x28(%ebp),%eax
  102991:	05 b0 3a 10 00       	add    $0x103ab0,%eax
  102996:	8a 00                	mov    (%eax),%al
  102998:	0f be c0             	movsbl %al,%eax
  10299b:	83 ec 08             	sub    $0x8,%esp
  10299e:	ff 75 0c             	pushl  0xc(%ebp)
  1029a1:	50                   	push   %eax
  1029a2:	8b 45 08             	mov    0x8(%ebp),%eax
  1029a5:	ff d0                	call   *%eax
  1029a7:	83 c4 10             	add    $0x10,%esp
  1029aa:	c9                   	leave  
  1029ab:	c3                   	ret    
  1029ac:	55                   	push   %ebp
  1029ad:	89 e5                	mov    %esp,%ebp
  1029af:	83 7d 0c 01          	cmpl   $0x1,0xc(%ebp)
  1029b3:	7e 14                	jle    1029c9 <pmm_init+0x113>
  1029b5:	8b 45 08             	mov    0x8(%ebp),%eax
  1029b8:	8b 00                	mov    (%eax),%eax
  1029ba:	8d 48 08             	lea    0x8(%eax),%ecx
  1029bd:	8b 55 08             	mov    0x8(%ebp),%edx
  1029c0:	89 0a                	mov    %ecx,(%edx)
  1029c2:	8b 50 04             	mov    0x4(%eax),%edx
  1029c5:	8b 00                	mov    (%eax),%eax
  1029c7:	eb 30                	jmp    1029f9 <pmm_init+0x143>
  1029c9:	83 7d 0c 00          	cmpl   $0x0,0xc(%ebp)
  1029cd:	74 16                	je     1029e5 <pmm_init+0x12f>
  1029cf:	8b 45 08             	mov    0x8(%ebp),%eax
  1029d2:	8b 00                	mov    (%eax),%eax
  1029d4:	8d 48 04             	lea    0x4(%eax),%ecx
  1029d7:	8b 55 08             	mov    0x8(%ebp),%edx
  1029da:	89 0a                	mov    %ecx,(%edx)
  1029dc:	8b 00                	mov    (%eax),%eax
  1029de:	ba 00 00 00 00       	mov    $0x0,%edx
  1029e3:	eb 14                	jmp    1029f9 <pmm_init+0x143>
  1029e5:	8b 45 08             	mov    0x8(%ebp),%eax
  1029e8:	8b 00                	mov    (%eax),%eax
  1029ea:	8d 48 04             	lea    0x4(%eax),%ecx
  1029ed:	8b 55 08             	mov    0x8(%ebp),%edx
  1029f0:	89 0a                	mov    %ecx,(%edx)
  1029f2:	8b 00                	mov    (%eax),%eax
  1029f4:	ba 00 00 00 00       	mov    $0x0,%edx
  1029f9:	5d                   	pop    %ebp
  1029fa:	c3                   	ret    
  1029fb:	55                   	push   %ebp
  1029fc:	89 e5                	mov    %esp,%ebp
  1029fe:	83 7d 0c 01          	cmpl   $0x1,0xc(%ebp)
  102a02:	7e 14                	jle    102a18 <pmm_init+0x162>
  102a04:	8b 45 08             	mov    0x8(%ebp),%eax
  102a07:	8b 00                	mov    (%eax),%eax
  102a09:	8d 48 08             	lea    0x8(%eax),%ecx
  102a0c:	8b 55 08             	mov    0x8(%ebp),%edx
  102a0f:	89 0a                	mov    %ecx,(%edx)
  102a11:	8b 50 04             	mov    0x4(%eax),%edx
  102a14:	8b 00                	mov    (%eax),%eax
  102a16:	eb 28                	jmp    102a40 <pmm_init+0x18a>
  102a18:	83 7d 0c 00          	cmpl   $0x0,0xc(%ebp)
  102a1c:	74 12                	je     102a30 <pmm_init+0x17a>
  102a1e:	8b 45 08             	mov    0x8(%ebp),%eax
  102a21:	8b 00                	mov    (%eax),%eax
  102a23:	8d 48 04             	lea    0x4(%eax),%ecx
  102a26:	8b 55 08             	mov    0x8(%ebp),%edx
  102a29:	89 0a                	mov    %ecx,(%edx)
  102a2b:	8b 00                	mov    (%eax),%eax
  102a2d:	99                   	cltd   
  102a2e:	eb 10                	jmp    102a40 <pmm_init+0x18a>
  102a30:	8b 45 08             	mov    0x8(%ebp),%eax
  102a33:	8b 00                	mov    (%eax),%eax
  102a35:	8d 48 04             	lea    0x4(%eax),%ecx
  102a38:	8b 55 08             	mov    0x8(%ebp),%edx
  102a3b:	89 0a                	mov    %ecx,(%edx)
  102a3d:	8b 00                	mov    (%eax),%eax
  102a3f:	99                   	cltd   
  102a40:	5d                   	pop    %ebp
  102a41:	c3                   	ret    

00102a42 <printfmt>:
  102a42:	55                   	push   %ebp
  102a43:	89 e5                	mov    %esp,%ebp
  102a45:	83 ec 18             	sub    $0x18,%esp
  102a48:	8d 45 14             	lea    0x14(%ebp),%eax
  102a4b:	89 45 f4             	mov    %eax,-0xc(%ebp)
  102a4e:	8b 45 f4             	mov    -0xc(%ebp),%eax
  102a51:	50                   	push   %eax
  102a52:	ff 75 10             	pushl  0x10(%ebp)
  102a55:	ff 75 0c             	pushl  0xc(%ebp)
  102a58:	ff 75 08             	pushl  0x8(%ebp)
  102a5b:	e8 05 00 00 00       	call   102a65 <vprintfmt>
  102a60:	83 c4 10             	add    $0x10,%esp
  102a63:	c9                   	leave  
  102a64:	c3                   	ret    

00102a65 <vprintfmt>:
  102a65:	55                   	push   %ebp
  102a66:	89 e5                	mov    %esp,%ebp
  102a68:	56                   	push   %esi
  102a69:	53                   	push   %ebx
  102a6a:	83 ec 20             	sub    $0x20,%esp
  102a6d:	eb 18                	jmp    102a87 <vprintfmt+0x22>
  102a6f:	85 db                	test   %ebx,%ebx
  102a71:	75 05                	jne    102a78 <vprintfmt+0x13>
  102a73:	e9 7c 03 00 00       	jmp    102df4 <vprintfmt+0x38f>
  102a78:	83 ec 08             	sub    $0x8,%esp
  102a7b:	ff 75 0c             	pushl  0xc(%ebp)
  102a7e:	53                   	push   %ebx
  102a7f:	8b 45 08             	mov    0x8(%ebp),%eax
  102a82:	ff d0                	call   *%eax
  102a84:	83 c4 10             	add    $0x10,%esp
  102a87:	8b 45 10             	mov    0x10(%ebp),%eax
  102a8a:	8d 50 01             	lea    0x1(%eax),%edx
  102a8d:	89 55 10             	mov    %edx,0x10(%ebp)
  102a90:	8a 00                	mov    (%eax),%al
  102a92:	0f b6 d8             	movzbl %al,%ebx
  102a95:	83 fb 25             	cmp    $0x25,%ebx
  102a98:	75 d5                	jne    102a6f <vprintfmt+0xa>
  102a9a:	c6 45 db 20          	movb   $0x20,-0x25(%ebp)
  102a9e:	c7 45 e4 ff ff ff ff 	movl   $0xffffffff,-0x1c(%ebp)
  102aa5:	8b 45 e4             	mov    -0x1c(%ebp),%eax
  102aa8:	89 45 e8             	mov    %eax,-0x18(%ebp)
  102aab:	c7 45 dc 00 00 00 00 	movl   $0x0,-0x24(%ebp)
  102ab2:	8b 45 dc             	mov    -0x24(%ebp),%eax
  102ab5:	89 45 e0             	mov    %eax,-0x20(%ebp)
  102ab8:	8b 45 10             	mov    0x10(%ebp),%eax
  102abb:	8d 50 01             	lea    0x1(%eax),%edx
  102abe:	89 55 10             	mov    %edx,0x10(%ebp)
  102ac1:	8a 00                	mov    (%eax),%al
  102ac3:	0f b6 d8             	movzbl %al,%ebx
  102ac6:	8d 43 dd             	lea    -0x23(%ebx),%eax
  102ac9:	83 f8 55             	cmp    $0x55,%eax
  102acc:	0f 87 fa 02 00 00    	ja     102dcc <vprintfmt+0x367>
  102ad2:	8b 04 85 d4 3a 10 00 	mov    0x103ad4(,%eax,4),%eax
  102ad9:	ff e0                	jmp    *%eax
  102adb:	c6 45 db 2d          	movb   $0x2d,-0x25(%ebp)
  102adf:	eb d7                	jmp    102ab8 <vprintfmt+0x53>
  102ae1:	c6 45 db 30          	movb   $0x30,-0x25(%ebp)
  102ae5:	eb d1                	jmp    102ab8 <vprintfmt+0x53>
  102ae7:	c7 45 e4 00 00 00 00 	movl   $0x0,-0x1c(%ebp)
  102aee:	8b 55 e4             	mov    -0x1c(%ebp),%edx
  102af1:	89 d0                	mov    %edx,%eax
  102af3:	c1 e0 02             	shl    $0x2,%eax
  102af6:	01 d0                	add    %edx,%eax
  102af8:	01 c0                	add    %eax,%eax
  102afa:	01 d8                	add    %ebx,%eax
  102afc:	83 e8 30             	sub    $0x30,%eax
  102aff:	89 45 e4             	mov    %eax,-0x1c(%ebp)
  102b02:	8b 45 10             	mov    0x10(%ebp),%eax
  102b05:	8a 00                	mov    (%eax),%al
  102b07:	0f be d8             	movsbl %al,%ebx
  102b0a:	83 fb 2f             	cmp    $0x2f,%ebx
  102b0d:	7e 0a                	jle    102b19 <vprintfmt+0xb4>
  102b0f:	83 fb 39             	cmp    $0x39,%ebx
  102b12:	7f 05                	jg     102b19 <vprintfmt+0xb4>
  102b14:	ff 45 10             	incl   0x10(%ebp)
  102b17:	eb d5                	jmp    102aee <vprintfmt+0x89>
  102b19:	eb 2e                	jmp    102b49 <vprintfmt+0xe4>
  102b1b:	8b 45 14             	mov    0x14(%ebp),%eax
  102b1e:	8d 50 04             	lea    0x4(%eax),%edx
  102b21:	89 55 14             	mov    %edx,0x14(%ebp)
  102b24:	8b 00                	mov    (%eax),%eax
  102b26:	89 45 e4             	mov    %eax,-0x1c(%ebp)
  102b29:	eb 1e                	jmp    102b49 <vprintfmt+0xe4>
  102b2b:	83 7d e8 00          	cmpl   $0x0,-0x18(%ebp)
  102b2f:	79 07                	jns    102b38 <vprintfmt+0xd3>
  102b31:	c7 45 e8 00 00 00 00 	movl   $0x0,-0x18(%ebp)
  102b38:	e9 7b ff ff ff       	jmp    102ab8 <vprintfmt+0x53>
  102b3d:	c7 45 dc 01 00 00 00 	movl   $0x1,-0x24(%ebp)
  102b44:	e9 6f ff ff ff       	jmp    102ab8 <vprintfmt+0x53>
  102b49:	83 7d e8 00          	cmpl   $0x0,-0x18(%ebp)
  102b4d:	79 0d                	jns    102b5c <vprintfmt+0xf7>
  102b4f:	8b 45 e4             	mov    -0x1c(%ebp),%eax
  102b52:	89 45 e8             	mov    %eax,-0x18(%ebp)
  102b55:	c7 45 e4 ff ff ff ff 	movl   $0xffffffff,-0x1c(%ebp)
  102b5c:	e9 57 ff ff ff       	jmp    102ab8 <vprintfmt+0x53>
  102b61:	ff 45 e0             	incl   -0x20(%ebp)
  102b64:	e9 4f ff ff ff       	jmp    102ab8 <vprintfmt+0x53>
  102b69:	8b 45 14             	mov    0x14(%ebp),%eax
  102b6c:	8d 50 04             	lea    0x4(%eax),%edx
  102b6f:	89 55 14             	mov    %edx,0x14(%ebp)
  102b72:	8b 00                	mov    (%eax),%eax
  102b74:	83 ec 08             	sub    $0x8,%esp
  102b77:	ff 75 0c             	pushl  0xc(%ebp)
  102b7a:	50                   	push   %eax
  102b7b:	8b 45 08             	mov    0x8(%ebp),%eax
  102b7e:	ff d0                	call   *%eax
  102b80:	83 c4 10             	add    $0x10,%esp
  102b83:	e9 67 02 00 00       	jmp    102def <vprintfmt+0x38a>
  102b88:	8b 45 14             	mov    0x14(%ebp),%eax
  102b8b:	8d 50 04             	lea    0x4(%eax),%edx
  102b8e:	89 55 14             	mov    %edx,0x14(%ebp)
  102b91:	8b 18                	mov    (%eax),%ebx
  102b93:	85 db                	test   %ebx,%ebx
  102b95:	79 02                	jns    102b99 <vprintfmt+0x134>
  102b97:	f7 db                	neg    %ebx
  102b99:	83 fb 06             	cmp    $0x6,%ebx
  102b9c:	7f 0b                	jg     102ba9 <vprintfmt+0x144>
  102b9e:	8b 34 9d 94 3a 10 00 	mov    0x103a94(,%ebx,4),%esi
  102ba5:	85 f6                	test   %esi,%esi
  102ba7:	75 19                	jne    102bc2 <vprintfmt+0x15d>
  102ba9:	53                   	push   %ebx
  102baa:	68 c1 3a 10 00       	push   $0x103ac1
  102baf:	ff 75 0c             	pushl  0xc(%ebp)
  102bb2:	ff 75 08             	pushl  0x8(%ebp)
  102bb5:	e8 88 fe ff ff       	call   102a42 <printfmt>
  102bba:	83 c4 10             	add    $0x10,%esp
  102bbd:	e9 2d 02 00 00       	jmp    102def <vprintfmt+0x38a>
  102bc2:	56                   	push   %esi
  102bc3:	68 ca 3a 10 00       	push   $0x103aca
  102bc8:	ff 75 0c             	pushl  0xc(%ebp)
  102bcb:	ff 75 08             	pushl  0x8(%ebp)
  102bce:	e8 6f fe ff ff       	call   102a42 <printfmt>
  102bd3:	83 c4 10             	add    $0x10,%esp
  102bd6:	e9 14 02 00 00       	jmp    102def <vprintfmt+0x38a>
  102bdb:	8b 45 14             	mov    0x14(%ebp),%eax
  102bde:	8d 50 04             	lea    0x4(%eax),%edx
  102be1:	89 55 14             	mov    %edx,0x14(%ebp)
  102be4:	8b 30                	mov    (%eax),%esi
  102be6:	85 f6                	test   %esi,%esi
  102be8:	75 05                	jne    102bef <vprintfmt+0x18a>
  102bea:	be cd 3a 10 00       	mov    $0x103acd,%esi
  102bef:	83 7d e8 00          	cmpl   $0x0,-0x18(%ebp)
  102bf3:	7e 3e                	jle    102c33 <vprintfmt+0x1ce>
  102bf5:	80 7d db 2d          	cmpb   $0x2d,-0x25(%ebp)
  102bf9:	74 38                	je     102c33 <vprintfmt+0x1ce>
  102bfb:	8b 45 e4             	mov    -0x1c(%ebp),%eax
  102bfe:	83 ec 08             	sub    $0x8,%esp
  102c01:	50                   	push   %eax
  102c02:	56                   	push   %esi
  102c03:	e8 d1 02 00 00       	call   102ed9 <strnlen>
  102c08:	83 c4 10             	add    $0x10,%esp
  102c0b:	8b 55 e8             	mov    -0x18(%ebp),%edx
  102c0e:	29 c2                	sub    %eax,%edx
  102c10:	89 d0                	mov    %edx,%eax
  102c12:	89 45 e8             	mov    %eax,-0x18(%ebp)
  102c15:	eb 16                	jmp    102c2d <vprintfmt+0x1c8>
  102c17:	0f be 45 db          	movsbl -0x25(%ebp),%eax
  102c1b:	83 ec 08             	sub    $0x8,%esp
  102c1e:	ff 75 0c             	pushl  0xc(%ebp)
  102c21:	50                   	push   %eax
  102c22:	8b 45 08             	mov    0x8(%ebp),%eax
  102c25:	ff d0                	call   *%eax
  102c27:	83 c4 10             	add    $0x10,%esp
  102c2a:	ff 4d e8             	decl   -0x18(%ebp)
  102c2d:	83 7d e8 00          	cmpl   $0x0,-0x18(%ebp)
  102c31:	7f e4                	jg     102c17 <vprintfmt+0x1b2>
  102c33:	eb 34                	jmp    102c69 <vprintfmt+0x204>
  102c35:	83 7d dc 00          	cmpl   $0x0,-0x24(%ebp)
  102c39:	74 1c                	je     102c57 <vprintfmt+0x1f2>
  102c3b:	83 fb 1f             	cmp    $0x1f,%ebx
  102c3e:	7e 05                	jle    102c45 <vprintfmt+0x1e0>
  102c40:	83 fb 7e             	cmp    $0x7e,%ebx
  102c43:	7e 12                	jle    102c57 <vprintfmt+0x1f2>
  102c45:	83 ec 08             	sub    $0x8,%esp
  102c48:	ff 75 0c             	pushl  0xc(%ebp)
  102c4b:	6a 3f                	push   $0x3f
  102c4d:	8b 45 08             	mov    0x8(%ebp),%eax
  102c50:	ff d0                	call   *%eax
  102c52:	83 c4 10             	add    $0x10,%esp
  102c55:	eb 0f                	jmp    102c66 <vprintfmt+0x201>
  102c57:	83 ec 08             	sub    $0x8,%esp
  102c5a:	ff 75 0c             	pushl  0xc(%ebp)
  102c5d:	53                   	push   %ebx
  102c5e:	8b 45 08             	mov    0x8(%ebp),%eax
  102c61:	ff d0                	call   *%eax
  102c63:	83 c4 10             	add    $0x10,%esp
  102c66:	ff 4d e8             	decl   -0x18(%ebp)
  102c69:	89 f0                	mov    %esi,%eax
  102c6b:	8d 70 01             	lea    0x1(%eax),%esi
  102c6e:	8a 00                	mov    (%eax),%al
  102c70:	0f be d8             	movsbl %al,%ebx
  102c73:	85 db                	test   %ebx,%ebx
  102c75:	74 0f                	je     102c86 <vprintfmt+0x221>
  102c77:	83 7d e4 00          	cmpl   $0x0,-0x1c(%ebp)
  102c7b:	78 b8                	js     102c35 <vprintfmt+0x1d0>
  102c7d:	ff 4d e4             	decl   -0x1c(%ebp)
  102c80:	83 7d e4 00          	cmpl   $0x0,-0x1c(%ebp)
  102c84:	79 af                	jns    102c35 <vprintfmt+0x1d0>
  102c86:	eb 13                	jmp    102c9b <vprintfmt+0x236>
  102c88:	83 ec 08             	sub    $0x8,%esp
  102c8b:	ff 75 0c             	pushl  0xc(%ebp)
  102c8e:	6a 20                	push   $0x20
  102c90:	8b 45 08             	mov    0x8(%ebp),%eax
  102c93:	ff d0                	call   *%eax
  102c95:	83 c4 10             	add    $0x10,%esp
  102c98:	ff 4d e8             	decl   -0x18(%ebp)
  102c9b:	83 7d e8 00          	cmpl   $0x0,-0x18(%ebp)
  102c9f:	7f e7                	jg     102c88 <vprintfmt+0x223>
  102ca1:	e9 49 01 00 00       	jmp    102def <vprintfmt+0x38a>
  102ca6:	83 ec 08             	sub    $0x8,%esp
  102ca9:	ff 75 e0             	pushl  -0x20(%ebp)
  102cac:	8d 45 14             	lea    0x14(%ebp),%eax
  102caf:	50                   	push   %eax
  102cb0:	e8 46 fd ff ff       	call   1029fb <pmm_init+0x145>
  102cb5:	83 c4 10             	add    $0x10,%esp
  102cb8:	89 45 f0             	mov    %eax,-0x10(%ebp)
  102cbb:	89 55 f4             	mov    %edx,-0xc(%ebp)
  102cbe:	8b 45 f0             	mov    -0x10(%ebp),%eax
  102cc1:	8b 55 f4             	mov    -0xc(%ebp),%edx
  102cc4:	85 d2                	test   %edx,%edx
  102cc6:	79 23                	jns    102ceb <vprintfmt+0x286>
  102cc8:	83 ec 08             	sub    $0x8,%esp
  102ccb:	ff 75 0c             	pushl  0xc(%ebp)
  102cce:	6a 2d                	push   $0x2d
  102cd0:	8b 45 08             	mov    0x8(%ebp),%eax
  102cd3:	ff d0                	call   *%eax
  102cd5:	83 c4 10             	add    $0x10,%esp
  102cd8:	8b 45 f0             	mov    -0x10(%ebp),%eax
  102cdb:	8b 55 f4             	mov    -0xc(%ebp),%edx
  102cde:	f7 d8                	neg    %eax
  102ce0:	83 d2 00             	adc    $0x0,%edx
  102ce3:	f7 da                	neg    %edx
  102ce5:	89 45 f0             	mov    %eax,-0x10(%ebp)
  102ce8:	89 55 f4             	mov    %edx,-0xc(%ebp)
  102ceb:	c7 45 ec 0a 00 00 00 	movl   $0xa,-0x14(%ebp)
  102cf2:	e9 9f 00 00 00       	jmp    102d96 <vprintfmt+0x331>
  102cf7:	83 ec 08             	sub    $0x8,%esp
  102cfa:	ff 75 e0             	pushl  -0x20(%ebp)
  102cfd:	8d 45 14             	lea    0x14(%ebp),%eax
  102d00:	50                   	push   %eax
  102d01:	e8 a6 fc ff ff       	call   1029ac <pmm_init+0xf6>
  102d06:	83 c4 10             	add    $0x10,%esp
  102d09:	89 45 f0             	mov    %eax,-0x10(%ebp)
  102d0c:	89 55 f4             	mov    %edx,-0xc(%ebp)
  102d0f:	c7 45 ec 0a 00 00 00 	movl   $0xa,-0x14(%ebp)
  102d16:	eb 7e                	jmp    102d96 <vprintfmt+0x331>
  102d18:	83 ec 08             	sub    $0x8,%esp
  102d1b:	ff 75 e0             	pushl  -0x20(%ebp)
  102d1e:	8d 45 14             	lea    0x14(%ebp),%eax
  102d21:	50                   	push   %eax
  102d22:	e8 85 fc ff ff       	call   1029ac <pmm_init+0xf6>
  102d27:	83 c4 10             	add    $0x10,%esp
  102d2a:	89 45 f0             	mov    %eax,-0x10(%ebp)
  102d2d:	89 55 f4             	mov    %edx,-0xc(%ebp)
  102d30:	c7 45 ec 08 00 00 00 	movl   $0x8,-0x14(%ebp)
  102d37:	eb 5d                	jmp    102d96 <vprintfmt+0x331>
  102d39:	83 ec 08             	sub    $0x8,%esp
  102d3c:	ff 75 0c             	pushl  0xc(%ebp)
  102d3f:	6a 30                	push   $0x30
  102d41:	8b 45 08             	mov    0x8(%ebp),%eax
  102d44:	ff d0                	call   *%eax
  102d46:	83 c4 10             	add    $0x10,%esp
  102d49:	83 ec 08             	sub    $0x8,%esp
  102d4c:	ff 75 0c             	pushl  0xc(%ebp)
  102d4f:	6a 78                	push   $0x78
  102d51:	8b 45 08             	mov    0x8(%ebp),%eax
  102d54:	ff d0                	call   *%eax
  102d56:	83 c4 10             	add    $0x10,%esp
  102d59:	8b 45 14             	mov    0x14(%ebp),%eax
  102d5c:	8d 50 04             	lea    0x4(%eax),%edx
  102d5f:	89 55 14             	mov    %edx,0x14(%ebp)
  102d62:	8b 00                	mov    (%eax),%eax
  102d64:	89 45 f0             	mov    %eax,-0x10(%ebp)
  102d67:	c7 45 f4 00 00 00 00 	movl   $0x0,-0xc(%ebp)
  102d6e:	c7 45 ec 10 00 00 00 	movl   $0x10,-0x14(%ebp)
  102d75:	eb 1f                	jmp    102d96 <vprintfmt+0x331>
  102d77:	83 ec 08             	sub    $0x8,%esp
  102d7a:	ff 75 e0             	pushl  -0x20(%ebp)
  102d7d:	8d 45 14             	lea    0x14(%ebp),%eax
  102d80:	50                   	push   %eax
  102d81:	e8 26 fc ff ff       	call   1029ac <pmm_init+0xf6>
  102d86:	83 c4 10             	add    $0x10,%esp
  102d89:	89 45 f0             	mov    %eax,-0x10(%ebp)
  102d8c:	89 55 f4             	mov    %edx,-0xc(%ebp)
  102d8f:	c7 45 ec 10 00 00 00 	movl   $0x10,-0x14(%ebp)
  102d96:	0f be 55 db          	movsbl -0x25(%ebp),%edx
  102d9a:	8b 45 ec             	mov    -0x14(%ebp),%eax
  102d9d:	83 ec 04             	sub    $0x4,%esp
  102da0:	52                   	push   %edx
  102da1:	ff 75 e8             	pushl  -0x18(%ebp)
  102da4:	50                   	push   %eax
  102da5:	ff 75 f4             	pushl  -0xc(%ebp)
  102da8:	ff 75 f0             	pushl  -0x10(%ebp)
  102dab:	ff 75 0c             	pushl  0xc(%ebp)
  102dae:	ff 75 08             	pushl  0x8(%ebp)
  102db1:	e8 0a fb ff ff       	call   1028c0 <pmm_init+0xa>
  102db6:	83 c4 20             	add    $0x20,%esp
  102db9:	eb 34                	jmp    102def <vprintfmt+0x38a>
  102dbb:	83 ec 08             	sub    $0x8,%esp
  102dbe:	ff 75 0c             	pushl  0xc(%ebp)
  102dc1:	53                   	push   %ebx
  102dc2:	8b 45 08             	mov    0x8(%ebp),%eax
  102dc5:	ff d0                	call   *%eax
  102dc7:	83 c4 10             	add    $0x10,%esp
  102dca:	eb 23                	jmp    102def <vprintfmt+0x38a>
  102dcc:	83 ec 08             	sub    $0x8,%esp
  102dcf:	ff 75 0c             	pushl  0xc(%ebp)
  102dd2:	6a 25                	push   $0x25
  102dd4:	8b 45 08             	mov    0x8(%ebp),%eax
  102dd7:	ff d0                	call   *%eax
  102dd9:	83 c4 10             	add    $0x10,%esp
  102ddc:	ff 4d 10             	decl   0x10(%ebp)
  102ddf:	eb 03                	jmp    102de4 <vprintfmt+0x37f>
  102de1:	ff 4d 10             	decl   0x10(%ebp)
  102de4:	8b 45 10             	mov    0x10(%ebp),%eax
  102de7:	48                   	dec    %eax
  102de8:	8a 00                	mov    (%eax),%al
  102dea:	3c 25                	cmp    $0x25,%al
  102dec:	75 f3                	jne    102de1 <vprintfmt+0x37c>
  102dee:	90                   	nop
  102def:	e9 79 fc ff ff       	jmp    102a6d <vprintfmt+0x8>
  102df4:	8d 65 f8             	lea    -0x8(%ebp),%esp
  102df7:	5b                   	pop    %ebx
  102df8:	5e                   	pop    %esi
  102df9:	5d                   	pop    %ebp
  102dfa:	c3                   	ret    
  102dfb:	55                   	push   %ebp
  102dfc:	89 e5                	mov    %esp,%ebp
  102dfe:	8b 45 0c             	mov    0xc(%ebp),%eax
  102e01:	8b 40 08             	mov    0x8(%eax),%eax
  102e04:	8d 50 01             	lea    0x1(%eax),%edx
  102e07:	8b 45 0c             	mov    0xc(%ebp),%eax
  102e0a:	89 50 08             	mov    %edx,0x8(%eax)
  102e0d:	8b 45 0c             	mov    0xc(%ebp),%eax
  102e10:	8b 10                	mov    (%eax),%edx
  102e12:	8b 45 0c             	mov    0xc(%ebp),%eax
  102e15:	8b 40 04             	mov    0x4(%eax),%eax
  102e18:	39 c2                	cmp    %eax,%edx
  102e1a:	73 12                	jae    102e2e <vprintfmt+0x3c9>
  102e1c:	8b 45 0c             	mov    0xc(%ebp),%eax
  102e1f:	8b 00                	mov    (%eax),%eax
  102e21:	8d 48 01             	lea    0x1(%eax),%ecx
  102e24:	8b 55 0c             	mov    0xc(%ebp),%edx
  102e27:	89 0a                	mov    %ecx,(%edx)
  102e29:	8b 55 08             	mov    0x8(%ebp),%edx
  102e2c:	88 10                	mov    %dl,(%eax)
  102e2e:	5d                   	pop    %ebp
  102e2f:	c3                   	ret    

00102e30 <snprintf>:
  102e30:	55                   	push   %ebp
  102e31:	89 e5                	mov    %esp,%ebp
  102e33:	83 ec 18             	sub    $0x18,%esp
  102e36:	8d 45 14             	lea    0x14(%ebp),%eax
  102e39:	89 45 f0             	mov    %eax,-0x10(%ebp)
  102e3c:	8b 45 f0             	mov    -0x10(%ebp),%eax
  102e3f:	50                   	push   %eax
  102e40:	ff 75 10             	pushl  0x10(%ebp)
  102e43:	ff 75 0c             	pushl  0xc(%ebp)
  102e46:	ff 75 08             	pushl  0x8(%ebp)
  102e49:	e8 0b 00 00 00       	call   102e59 <vsnprintf>
  102e4e:	83 c4 10             	add    $0x10,%esp
  102e51:	89 45 f4             	mov    %eax,-0xc(%ebp)
  102e54:	8b 45 f4             	mov    -0xc(%ebp),%eax
  102e57:	c9                   	leave  
  102e58:	c3                   	ret    

00102e59 <vsnprintf>:
  102e59:	55                   	push   %ebp
  102e5a:	89 e5                	mov    %esp,%ebp
  102e5c:	83 ec 18             	sub    $0x18,%esp
  102e5f:	8b 45 08             	mov    0x8(%ebp),%eax
  102e62:	89 45 ec             	mov    %eax,-0x14(%ebp)
  102e65:	8b 45 0c             	mov    0xc(%ebp),%eax
  102e68:	8d 50 ff             	lea    -0x1(%eax),%edx
  102e6b:	8b 45 08             	mov    0x8(%ebp),%eax
  102e6e:	01 d0                	add    %edx,%eax
  102e70:	89 45 f0             	mov    %eax,-0x10(%ebp)
  102e73:	c7 45 f4 00 00 00 00 	movl   $0x0,-0xc(%ebp)
  102e7a:	83 7d 08 00          	cmpl   $0x0,0x8(%ebp)
  102e7e:	74 0a                	je     102e8a <vsnprintf+0x31>
  102e80:	8b 55 ec             	mov    -0x14(%ebp),%edx
  102e83:	8b 45 f0             	mov    -0x10(%ebp),%eax
  102e86:	39 c2                	cmp    %eax,%edx
  102e88:	76 07                	jbe    102e91 <vsnprintf+0x38>
  102e8a:	b8 fd ff ff ff       	mov    $0xfffffffd,%eax
  102e8f:	eb 20                	jmp    102eb1 <vsnprintf+0x58>
  102e91:	ff 75 14             	pushl  0x14(%ebp)
  102e94:	ff 75 10             	pushl  0x10(%ebp)
  102e97:	8d 45 ec             	lea    -0x14(%ebp),%eax
  102e9a:	50                   	push   %eax
  102e9b:	68 cc 2d 10 00       	push   $0x102dcc
  102ea0:	e8 c0 fb ff ff       	call   102a65 <vprintfmt>
  102ea5:	83 c4 10             	add    $0x10,%esp
  102ea8:	8b 45 ec             	mov    -0x14(%ebp),%eax
  102eab:	c6 00 00             	movb   $0x0,(%eax)
  102eae:	8b 45 f4             	mov    -0xc(%ebp),%eax
  102eb1:	c9                   	leave  
  102eb2:	c3                   	ret    

00102eb3 <strlen>:
  102eb3:	55                   	push   %ebp
  102eb4:	89 e5                	mov    %esp,%ebp
  102eb6:	83 ec 10             	sub    $0x10,%esp
  102eb9:	c7 45 fc 00 00 00 00 	movl   $0x0,-0x4(%ebp)
  102ec0:	eb 03                	jmp    102ec5 <strlen+0x12>
  102ec2:	ff 45 fc             	incl   -0x4(%ebp)
  102ec5:	8b 45 08             	mov    0x8(%ebp),%eax
  102ec8:	8d 50 01             	lea    0x1(%eax),%edx
  102ecb:	89 55 08             	mov    %edx,0x8(%ebp)
  102ece:	8a 00                	mov    (%eax),%al
  102ed0:	84 c0                	test   %al,%al
  102ed2:	75 ee                	jne    102ec2 <strlen+0xf>
  102ed4:	8b 45 fc             	mov    -0x4(%ebp),%eax
  102ed7:	c9                   	leave  
  102ed8:	c3                   	ret    

00102ed9 <strnlen>:
  102ed9:	55                   	push   %ebp
  102eda:	89 e5                	mov    %esp,%ebp
  102edc:	83 ec 10             	sub    $0x10,%esp
  102edf:	c7 45 fc 00 00 00 00 	movl   $0x0,-0x4(%ebp)
  102ee6:	eb 03                	jmp    102eeb <strnlen+0x12>
  102ee8:	ff 45 fc             	incl   -0x4(%ebp)
  102eeb:	8b 45 fc             	mov    -0x4(%ebp),%eax
  102eee:	3b 45 0c             	cmp    0xc(%ebp),%eax
  102ef1:	73 0f                	jae    102f02 <strnlen+0x29>
  102ef3:	8b 45 08             	mov    0x8(%ebp),%eax
  102ef6:	8d 50 01             	lea    0x1(%eax),%edx
  102ef9:	89 55 08             	mov    %edx,0x8(%ebp)
  102efc:	8a 00                	mov    (%eax),%al
  102efe:	84 c0                	test   %al,%al
  102f00:	75 e6                	jne    102ee8 <strnlen+0xf>
  102f02:	8b 45 fc             	mov    -0x4(%ebp),%eax
  102f05:	c9                   	leave  
  102f06:	c3                   	ret    

00102f07 <strcpy>:
  102f07:	55                   	push   %ebp
  102f08:	89 e5                	mov    %esp,%ebp
  102f0a:	57                   	push   %edi
  102f0b:	56                   	push   %esi
  102f0c:	83 ec 20             	sub    $0x20,%esp
  102f0f:	8b 45 08             	mov    0x8(%ebp),%eax
  102f12:	89 45 f4             	mov    %eax,-0xc(%ebp)
  102f15:	8b 45 0c             	mov    0xc(%ebp),%eax
  102f18:	89 45 f0             	mov    %eax,-0x10(%ebp)
  102f1b:	8b 55 f0             	mov    -0x10(%ebp),%edx
  102f1e:	8b 45 f4             	mov    -0xc(%ebp),%eax
  102f21:	89 d1                	mov    %edx,%ecx
  102f23:	89 c2                	mov    %eax,%edx
  102f25:	89 ce                	mov    %ecx,%esi
  102f27:	89 d7                	mov    %edx,%edi
  102f29:	ac                   	lods   %ds:(%esi),%al
  102f2a:	aa                   	stos   %al,%es:(%edi)
  102f2b:	84 c0                	test   %al,%al
  102f2d:	75 fa                	jne    102f29 <strcpy+0x22>
  102f2f:	89 fa                	mov    %edi,%edx
  102f31:	89 f1                	mov    %esi,%ecx
  102f33:	89 4d ec             	mov    %ecx,-0x14(%ebp)
  102f36:	89 55 e8             	mov    %edx,-0x18(%ebp)
  102f39:	89 45 e4             	mov    %eax,-0x1c(%ebp)
  102f3c:	8b 45 f4             	mov    -0xc(%ebp),%eax
  102f3f:	90                   	nop
  102f40:	83 c4 20             	add    $0x20,%esp
  102f43:	5e                   	pop    %esi
  102f44:	5f                   	pop    %edi
  102f45:	5d                   	pop    %ebp
  102f46:	c3                   	ret    

00102f47 <strncpy>:
  102f47:	55                   	push   %ebp
  102f48:	89 e5                	mov    %esp,%ebp
  102f4a:	83 ec 10             	sub    $0x10,%esp
  102f4d:	8b 45 08             	mov    0x8(%ebp),%eax
  102f50:	89 45 fc             	mov    %eax,-0x4(%ebp)
  102f53:	eb 1c                	jmp    102f71 <strncpy+0x2a>
  102f55:	8b 45 0c             	mov    0xc(%ebp),%eax
  102f58:	8a 10                	mov    (%eax),%dl
  102f5a:	8b 45 fc             	mov    -0x4(%ebp),%eax
  102f5d:	88 10                	mov    %dl,(%eax)
  102f5f:	8b 45 fc             	mov    -0x4(%ebp),%eax
  102f62:	8a 00                	mov    (%eax),%al
  102f64:	84 c0                	test   %al,%al
  102f66:	74 03                	je     102f6b <strncpy+0x24>
  102f68:	ff 45 0c             	incl   0xc(%ebp)
  102f6b:	ff 45 fc             	incl   -0x4(%ebp)
  102f6e:	ff 4d 10             	decl   0x10(%ebp)
  102f71:	83 7d 10 00          	cmpl   $0x0,0x10(%ebp)
  102f75:	75 de                	jne    102f55 <strncpy+0xe>
  102f77:	8b 45 08             	mov    0x8(%ebp),%eax
  102f7a:	c9                   	leave  
  102f7b:	c3                   	ret    

00102f7c <strcmp>:
  102f7c:	55                   	push   %ebp
  102f7d:	89 e5                	mov    %esp,%ebp
  102f7f:	57                   	push   %edi
  102f80:	56                   	push   %esi
  102f81:	83 ec 20             	sub    $0x20,%esp
  102f84:	8b 45 08             	mov    0x8(%ebp),%eax
  102f87:	89 45 f4             	mov    %eax,-0xc(%ebp)
  102f8a:	8b 45 0c             	mov    0xc(%ebp),%eax
  102f8d:	89 45 f0             	mov    %eax,-0x10(%ebp)
  102f90:	8b 55 f4             	mov    -0xc(%ebp),%edx
  102f93:	8b 45 f0             	mov    -0x10(%ebp),%eax
  102f96:	89 d1                	mov    %edx,%ecx
  102f98:	89 c2                	mov    %eax,%edx
  102f9a:	89 ce                	mov    %ecx,%esi
  102f9c:	89 d7                	mov    %edx,%edi
  102f9e:	ac                   	lods   %ds:(%esi),%al
  102f9f:	ae                   	scas   %es:(%edi),%al
  102fa0:	75 08                	jne    102faa <strcmp+0x2e>
  102fa2:	84 c0                	test   %al,%al
  102fa4:	75 f8                	jne    102f9e <strcmp+0x22>
  102fa6:	31 c0                	xor    %eax,%eax
  102fa8:	eb 04                	jmp    102fae <strcmp+0x32>
  102faa:	19 c0                	sbb    %eax,%eax
  102fac:	0c 01                	or     $0x1,%al
  102fae:	89 fa                	mov    %edi,%edx
  102fb0:	89 f1                	mov    %esi,%ecx
  102fb2:	89 45 ec             	mov    %eax,-0x14(%ebp)
  102fb5:	89 4d e8             	mov    %ecx,-0x18(%ebp)
  102fb8:	89 55 e4             	mov    %edx,-0x1c(%ebp)
  102fbb:	8b 45 ec             	mov    -0x14(%ebp),%eax
  102fbe:	90                   	nop
  102fbf:	83 c4 20             	add    $0x20,%esp
  102fc2:	5e                   	pop    %esi
  102fc3:	5f                   	pop    %edi
  102fc4:	5d                   	pop    %ebp
  102fc5:	c3                   	ret    

00102fc6 <strncmp>:
  102fc6:	55                   	push   %ebp
  102fc7:	89 e5                	mov    %esp,%ebp
  102fc9:	eb 09                	jmp    102fd4 <strncmp+0xe>
  102fcb:	ff 4d 10             	decl   0x10(%ebp)
  102fce:	ff 45 08             	incl   0x8(%ebp)
  102fd1:	ff 45 0c             	incl   0xc(%ebp)
  102fd4:	83 7d 10 00          	cmpl   $0x0,0x10(%ebp)
  102fd8:	74 17                	je     102ff1 <strncmp+0x2b>
  102fda:	8b 45 08             	mov    0x8(%ebp),%eax
  102fdd:	8a 00                	mov    (%eax),%al
  102fdf:	84 c0                	test   %al,%al
  102fe1:	74 0e                	je     102ff1 <strncmp+0x2b>
  102fe3:	8b 45 08             	mov    0x8(%ebp),%eax
  102fe6:	8a 10                	mov    (%eax),%dl
  102fe8:	8b 45 0c             	mov    0xc(%ebp),%eax
  102feb:	8a 00                	mov    (%eax),%al
  102fed:	38 c2                	cmp    %al,%dl
  102fef:	74 da                	je     102fcb <strncmp+0x5>
  102ff1:	83 7d 10 00          	cmpl   $0x0,0x10(%ebp)
  102ff5:	74 16                	je     10300d <strncmp+0x47>
  102ff7:	8b 45 08             	mov    0x8(%ebp),%eax
  102ffa:	8a 00                	mov    (%eax),%al
  102ffc:	0f b6 d0             	movzbl %al,%edx
  102fff:	8b 45 0c             	mov    0xc(%ebp),%eax
  103002:	8a 00                	mov    (%eax),%al
  103004:	0f b6 c0             	movzbl %al,%eax
  103007:	29 c2                	sub    %eax,%edx
  103009:	89 d0                	mov    %edx,%eax
  10300b:	eb 05                	jmp    103012 <strncmp+0x4c>
  10300d:	b8 00 00 00 00       	mov    $0x0,%eax
  103012:	5d                   	pop    %ebp
  103013:	c3                   	ret    

00103014 <strchr>:
  103014:	55                   	push   %ebp
  103015:	89 e5                	mov    %esp,%ebp
  103017:	83 ec 04             	sub    $0x4,%esp
  10301a:	8b 45 0c             	mov    0xc(%ebp),%eax
  10301d:	88 45 fc             	mov    %al,-0x4(%ebp)
  103020:	eb 12                	jmp    103034 <strchr+0x20>
  103022:	8b 45 08             	mov    0x8(%ebp),%eax
  103025:	8a 00                	mov    (%eax),%al
  103027:	3a 45 fc             	cmp    -0x4(%ebp),%al
  10302a:	75 05                	jne    103031 <strchr+0x1d>
  10302c:	8b 45 08             	mov    0x8(%ebp),%eax
  10302f:	eb 11                	jmp    103042 <strchr+0x2e>
  103031:	ff 45 08             	incl   0x8(%ebp)
  103034:	8b 45 08             	mov    0x8(%ebp),%eax
  103037:	8a 00                	mov    (%eax),%al
  103039:	84 c0                	test   %al,%al
  10303b:	75 e5                	jne    103022 <strchr+0xe>
  10303d:	b8 00 00 00 00       	mov    $0x0,%eax
  103042:	c9                   	leave  
  103043:	c3                   	ret    

00103044 <strfind>:
  103044:	55                   	push   %ebp
  103045:	89 e5                	mov    %esp,%ebp
  103047:	83 ec 04             	sub    $0x4,%esp
  10304a:	8b 45 0c             	mov    0xc(%ebp),%eax
  10304d:	88 45 fc             	mov    %al,-0x4(%ebp)
  103050:	eb 0f                	jmp    103061 <strfind+0x1d>
  103052:	8b 45 08             	mov    0x8(%ebp),%eax
  103055:	8a 00                	mov    (%eax),%al
  103057:	3a 45 fc             	cmp    -0x4(%ebp),%al
  10305a:	75 02                	jne    10305e <strfind+0x1a>
  10305c:	eb 0c                	jmp    10306a <strfind+0x26>
  10305e:	ff 45 08             	incl   0x8(%ebp)
  103061:	8b 45 08             	mov    0x8(%ebp),%eax
  103064:	8a 00                	mov    (%eax),%al
  103066:	84 c0                	test   %al,%al
  103068:	75 e8                	jne    103052 <strfind+0xe>
  10306a:	8b 45 08             	mov    0x8(%ebp),%eax
  10306d:	c9                   	leave  
  10306e:	c3                   	ret    

0010306f <strtol>:
  10306f:	55                   	push   %ebp
  103070:	89 e5                	mov    %esp,%ebp
  103072:	83 ec 10             	sub    $0x10,%esp
  103075:	c7 45 fc 00 00 00 00 	movl   $0x0,-0x4(%ebp)
  10307c:	c7 45 f8 00 00 00 00 	movl   $0x0,-0x8(%ebp)
  103083:	eb 03                	jmp    103088 <strtol+0x19>
  103085:	ff 45 08             	incl   0x8(%ebp)
  103088:	8b 45 08             	mov    0x8(%ebp),%eax
  10308b:	8a 00                	mov    (%eax),%al
  10308d:	3c 20                	cmp    $0x20,%al
  10308f:	74 f4                	je     103085 <strtol+0x16>
  103091:	8b 45 08             	mov    0x8(%ebp),%eax
  103094:	8a 00                	mov    (%eax),%al
  103096:	3c 09                	cmp    $0x9,%al
  103098:	74 eb                	je     103085 <strtol+0x16>
  10309a:	8b 45 08             	mov    0x8(%ebp),%eax
  10309d:	8a 00                	mov    (%eax),%al
  10309f:	3c 2b                	cmp    $0x2b,%al
  1030a1:	75 05                	jne    1030a8 <strtol+0x39>
  1030a3:	ff 45 08             	incl   0x8(%ebp)
  1030a6:	eb 13                	jmp    1030bb <strtol+0x4c>
  1030a8:	8b 45 08             	mov    0x8(%ebp),%eax
  1030ab:	8a 00                	mov    (%eax),%al
  1030ad:	3c 2d                	cmp    $0x2d,%al
  1030af:	75 0a                	jne    1030bb <strtol+0x4c>
  1030b1:	ff 45 08             	incl   0x8(%ebp)
  1030b4:	c7 45 fc 01 00 00 00 	movl   $0x1,-0x4(%ebp)
  1030bb:	83 7d 10 00          	cmpl   $0x0,0x10(%ebp)
  1030bf:	74 06                	je     1030c7 <strtol+0x58>
  1030c1:	83 7d 10 10          	cmpl   $0x10,0x10(%ebp)
  1030c5:	75 20                	jne    1030e7 <strtol+0x78>
  1030c7:	8b 45 08             	mov    0x8(%ebp),%eax
  1030ca:	8a 00                	mov    (%eax),%al
  1030cc:	3c 30                	cmp    $0x30,%al
  1030ce:	75 17                	jne    1030e7 <strtol+0x78>
  1030d0:	8b 45 08             	mov    0x8(%ebp),%eax
  1030d3:	40                   	inc    %eax
  1030d4:	8a 00                	mov    (%eax),%al
  1030d6:	3c 78                	cmp    $0x78,%al
  1030d8:	75 0d                	jne    1030e7 <strtol+0x78>
  1030da:	83 45 08 02          	addl   $0x2,0x8(%ebp)
  1030de:	c7 45 10 10 00 00 00 	movl   $0x10,0x10(%ebp)
  1030e5:	eb 28                	jmp    10310f <strtol+0xa0>
  1030e7:	83 7d 10 00          	cmpl   $0x0,0x10(%ebp)
  1030eb:	75 15                	jne    103102 <strtol+0x93>
  1030ed:	8b 45 08             	mov    0x8(%ebp),%eax
  1030f0:	8a 00                	mov    (%eax),%al
  1030f2:	3c 30                	cmp    $0x30,%al
  1030f4:	75 0c                	jne    103102 <strtol+0x93>
  1030f6:	ff 45 08             	incl   0x8(%ebp)
  1030f9:	c7 45 10 08 00 00 00 	movl   $0x8,0x10(%ebp)
  103100:	eb 0d                	jmp    10310f <strtol+0xa0>
  103102:	83 7d 10 00          	cmpl   $0x0,0x10(%ebp)
  103106:	75 07                	jne    10310f <strtol+0xa0>
  103108:	c7 45 10 0a 00 00 00 	movl   $0xa,0x10(%ebp)
  10310f:	8b 45 08             	mov    0x8(%ebp),%eax
  103112:	8a 00                	mov    (%eax),%al
  103114:	3c 2f                	cmp    $0x2f,%al
  103116:	7e 19                	jle    103131 <strtol+0xc2>
  103118:	8b 45 08             	mov    0x8(%ebp),%eax
  10311b:	8a 00                	mov    (%eax),%al
  10311d:	3c 39                	cmp    $0x39,%al
  10311f:	7f 10                	jg     103131 <strtol+0xc2>
  103121:	8b 45 08             	mov    0x8(%ebp),%eax
  103124:	8a 00                	mov    (%eax),%al
  103126:	0f be c0             	movsbl %al,%eax
  103129:	83 e8 30             	sub    $0x30,%eax
  10312c:	89 45 f4             	mov    %eax,-0xc(%ebp)
  10312f:	eb 42                	jmp    103173 <strtol+0x104>
  103131:	8b 45 08             	mov    0x8(%ebp),%eax
  103134:	8a 00                	mov    (%eax),%al
  103136:	3c 60                	cmp    $0x60,%al
  103138:	7e 19                	jle    103153 <strtol+0xe4>
  10313a:	8b 45 08             	mov    0x8(%ebp),%eax
  10313d:	8a 00                	mov    (%eax),%al
  10313f:	3c 7a                	cmp    $0x7a,%al
  103141:	7f 10                	jg     103153 <strtol+0xe4>
  103143:	8b 45 08             	mov    0x8(%ebp),%eax
  103146:	8a 00                	mov    (%eax),%al
  103148:	0f be c0             	movsbl %al,%eax
  10314b:	83 e8 57             	sub    $0x57,%eax
  10314e:	89 45 f4             	mov    %eax,-0xc(%ebp)
  103151:	eb 20                	jmp    103173 <strtol+0x104>
  103153:	8b 45 08             	mov    0x8(%ebp),%eax
  103156:	8a 00                	mov    (%eax),%al
  103158:	3c 40                	cmp    $0x40,%al
  10315a:	7e 3a                	jle    103196 <strtol+0x127>
  10315c:	8b 45 08             	mov    0x8(%ebp),%eax
  10315f:	8a 00                	mov    (%eax),%al
  103161:	3c 5a                	cmp    $0x5a,%al
  103163:	7f 31                	jg     103196 <strtol+0x127>
  103165:	8b 45 08             	mov    0x8(%ebp),%eax
  103168:	8a 00                	mov    (%eax),%al
  10316a:	0f be c0             	movsbl %al,%eax
  10316d:	83 e8 37             	sub    $0x37,%eax
  103170:	89 45 f4             	mov    %eax,-0xc(%ebp)
  103173:	8b 45 f4             	mov    -0xc(%ebp),%eax
  103176:	3b 45 10             	cmp    0x10(%ebp),%eax
  103179:	7c 02                	jl     10317d <strtol+0x10e>
  10317b:	eb 19                	jmp    103196 <strtol+0x127>
  10317d:	ff 45 08             	incl   0x8(%ebp)
  103180:	8b 45 f8             	mov    -0x8(%ebp),%eax
  103183:	0f af 45 10          	imul   0x10(%ebp),%eax
  103187:	89 c2                	mov    %eax,%edx
  103189:	8b 45 f4             	mov    -0xc(%ebp),%eax
  10318c:	01 d0                	add    %edx,%eax
  10318e:	89 45 f8             	mov    %eax,-0x8(%ebp)
  103191:	e9 79 ff ff ff       	jmp    10310f <strtol+0xa0>
  103196:	83 7d 0c 00          	cmpl   $0x0,0xc(%ebp)
  10319a:	74 08                	je     1031a4 <strtol+0x135>
  10319c:	8b 45 0c             	mov    0xc(%ebp),%eax
  10319f:	8b 55 08             	mov    0x8(%ebp),%edx
  1031a2:	89 10                	mov    %edx,(%eax)
  1031a4:	83 7d fc 00          	cmpl   $0x0,-0x4(%ebp)
  1031a8:	74 07                	je     1031b1 <strtol+0x142>
  1031aa:	8b 45 f8             	mov    -0x8(%ebp),%eax
  1031ad:	f7 d8                	neg    %eax
  1031af:	eb 03                	jmp    1031b4 <strtol+0x145>
  1031b1:	8b 45 f8             	mov    -0x8(%ebp),%eax
  1031b4:	c9                   	leave  
  1031b5:	c3                   	ret    

001031b6 <memset>:
  1031b6:	55                   	push   %ebp
  1031b7:	89 e5                	mov    %esp,%ebp
  1031b9:	57                   	push   %edi
  1031ba:	83 ec 24             	sub    $0x24,%esp
  1031bd:	8b 45 0c             	mov    0xc(%ebp),%eax
  1031c0:	88 45 d8             	mov    %al,-0x28(%ebp)
  1031c3:	0f be 45 d8          	movsbl -0x28(%ebp),%eax
  1031c7:	8b 55 08             	mov    0x8(%ebp),%edx
  1031ca:	89 55 f8             	mov    %edx,-0x8(%ebp)
  1031cd:	88 45 f7             	mov    %al,-0x9(%ebp)
  1031d0:	8b 45 10             	mov    0x10(%ebp),%eax
  1031d3:	89 45 f0             	mov    %eax,-0x10(%ebp)
  1031d6:	8b 4d f0             	mov    -0x10(%ebp),%ecx
  1031d9:	8a 45 f7             	mov    -0x9(%ebp),%al
  1031dc:	8b 55 f8             	mov    -0x8(%ebp),%edx
  1031df:	89 d7                	mov    %edx,%edi
  1031e1:	f3 aa                	rep stos %al,%es:(%edi)
  1031e3:	89 fa                	mov    %edi,%edx
  1031e5:	89 4d ec             	mov    %ecx,-0x14(%ebp)
  1031e8:	89 55 e8             	mov    %edx,-0x18(%ebp)
  1031eb:	8b 45 f8             	mov    -0x8(%ebp),%eax
  1031ee:	90                   	nop
  1031ef:	83 c4 24             	add    $0x24,%esp
  1031f2:	5f                   	pop    %edi
  1031f3:	5d                   	pop    %ebp
  1031f4:	c3                   	ret    

001031f5 <memmove>:
  1031f5:	55                   	push   %ebp
  1031f6:	89 e5                	mov    %esp,%ebp
  1031f8:	57                   	push   %edi
  1031f9:	56                   	push   %esi
  1031fa:	53                   	push   %ebx
  1031fb:	83 ec 30             	sub    $0x30,%esp
  1031fe:	8b 45 08             	mov    0x8(%ebp),%eax
  103201:	89 45 f0             	mov    %eax,-0x10(%ebp)
  103204:	8b 45 0c             	mov    0xc(%ebp),%eax
  103207:	89 45 ec             	mov    %eax,-0x14(%ebp)
  10320a:	8b 45 10             	mov    0x10(%ebp),%eax
  10320d:	89 45 e8             	mov    %eax,-0x18(%ebp)
  103210:	8b 45 f0             	mov    -0x10(%ebp),%eax
  103213:	3b 45 ec             	cmp    -0x14(%ebp),%eax
  103216:	73 42                	jae    10325a <memmove+0x65>
  103218:	8b 45 f0             	mov    -0x10(%ebp),%eax
  10321b:	89 45 e4             	mov    %eax,-0x1c(%ebp)
  10321e:	8b 45 ec             	mov    -0x14(%ebp),%eax
  103221:	89 45 e0             	mov    %eax,-0x20(%ebp)
  103224:	8b 45 e8             	mov    -0x18(%ebp),%eax
  103227:	89 45 dc             	mov    %eax,-0x24(%ebp)
  10322a:	8b 45 dc             	mov    -0x24(%ebp),%eax
  10322d:	c1 e8 02             	shr    $0x2,%eax
  103230:	89 c1                	mov    %eax,%ecx
  103232:	8b 55 e4             	mov    -0x1c(%ebp),%edx
  103235:	8b 45 e0             	mov    -0x20(%ebp),%eax
  103238:	89 d7                	mov    %edx,%edi
  10323a:	89 c6                	mov    %eax,%esi
  10323c:	f3 a5                	rep movsl %ds:(%esi),%es:(%edi)
  10323e:	8b 4d dc             	mov    -0x24(%ebp),%ecx
  103241:	83 e1 03             	and    $0x3,%ecx
  103244:	74 02                	je     103248 <memmove+0x53>
  103246:	f3 a4                	rep movsb %ds:(%esi),%es:(%edi)
  103248:	89 f0                	mov    %esi,%eax
  10324a:	89 fa                	mov    %edi,%edx
  10324c:	89 4d d8             	mov    %ecx,-0x28(%ebp)
  10324f:	89 55 d4             	mov    %edx,-0x2c(%ebp)
  103252:	89 45 d0             	mov    %eax,-0x30(%ebp)
  103255:	8b 45 e4             	mov    -0x1c(%ebp),%eax
  103258:	eb 36                	jmp    103290 <memmove+0x9b>
  10325a:	8b 45 e8             	mov    -0x18(%ebp),%eax
  10325d:	8d 50 ff             	lea    -0x1(%eax),%edx
  103260:	8b 45 ec             	mov    -0x14(%ebp),%eax
  103263:	01 c2                	add    %eax,%edx
  103265:	8b 45 e8             	mov    -0x18(%ebp),%eax
  103268:	8d 48 ff             	lea    -0x1(%eax),%ecx
  10326b:	8b 45 f0             	mov    -0x10(%ebp),%eax
  10326e:	8d 1c 01             	lea    (%ecx,%eax,1),%ebx
  103271:	8b 45 e8             	mov    -0x18(%ebp),%eax
  103274:	89 c1                	mov    %eax,%ecx
  103276:	89 d8                	mov    %ebx,%eax
  103278:	89 d6                	mov    %edx,%esi
  10327a:	89 c7                	mov    %eax,%edi
  10327c:	fd                   	std    
  10327d:	f3 a4                	rep movsb %ds:(%esi),%es:(%edi)
  10327f:	fc                   	cld    
  103280:	89 f8                	mov    %edi,%eax
  103282:	89 f2                	mov    %esi,%edx
  103284:	89 4d cc             	mov    %ecx,-0x34(%ebp)
  103287:	89 55 c8             	mov    %edx,-0x38(%ebp)
  10328a:	89 45 c4             	mov    %eax,-0x3c(%ebp)
  10328d:	8b 45 f0             	mov    -0x10(%ebp),%eax
  103290:	83 c4 30             	add    $0x30,%esp
  103293:	5b                   	pop    %ebx
  103294:	5e                   	pop    %esi
  103295:	5f                   	pop    %edi
  103296:	5d                   	pop    %ebp
  103297:	c3                   	ret    

00103298 <memcpy>:
  103298:	55                   	push   %ebp
  103299:	89 e5                	mov    %esp,%ebp
  10329b:	57                   	push   %edi
  10329c:	56                   	push   %esi
  10329d:	83 ec 20             	sub    $0x20,%esp
  1032a0:	8b 45 08             	mov    0x8(%ebp),%eax
  1032a3:	89 45 f4             	mov    %eax,-0xc(%ebp)
  1032a6:	8b 45 0c             	mov    0xc(%ebp),%eax
  1032a9:	89 45 f0             	mov    %eax,-0x10(%ebp)
  1032ac:	8b 45 10             	mov    0x10(%ebp),%eax
  1032af:	89 45 ec             	mov    %eax,-0x14(%ebp)
  1032b2:	8b 45 ec             	mov    -0x14(%ebp),%eax
  1032b5:	c1 e8 02             	shr    $0x2,%eax
  1032b8:	89 c1                	mov    %eax,%ecx
  1032ba:	8b 55 f4             	mov    -0xc(%ebp),%edx
  1032bd:	8b 45 f0             	mov    -0x10(%ebp),%eax
  1032c0:	89 d7                	mov    %edx,%edi
  1032c2:	89 c6                	mov    %eax,%esi
  1032c4:	f3 a5                	rep movsl %ds:(%esi),%es:(%edi)
  1032c6:	8b 4d ec             	mov    -0x14(%ebp),%ecx
  1032c9:	83 e1 03             	and    $0x3,%ecx
  1032cc:	74 02                	je     1032d0 <memcpy+0x38>
  1032ce:	f3 a4                	rep movsb %ds:(%esi),%es:(%edi)
  1032d0:	89 f0                	mov    %esi,%eax
  1032d2:	89 fa                	mov    %edi,%edx
  1032d4:	89 4d e8             	mov    %ecx,-0x18(%ebp)
  1032d7:	89 55 e4             	mov    %edx,-0x1c(%ebp)
  1032da:	89 45 e0             	mov    %eax,-0x20(%ebp)
  1032dd:	8b 45 f4             	mov    -0xc(%ebp),%eax
  1032e0:	90                   	nop
  1032e1:	83 c4 20             	add    $0x20,%esp
  1032e4:	5e                   	pop    %esi
  1032e5:	5f                   	pop    %edi
  1032e6:	5d                   	pop    %ebp
  1032e7:	c3                   	ret    

001032e8 <memcmp>:
  1032e8:	55                   	push   %ebp
  1032e9:	89 e5                	mov    %esp,%ebp
  1032eb:	83 ec 10             	sub    $0x10,%esp
  1032ee:	8b 45 08             	mov    0x8(%ebp),%eax
  1032f1:	89 45 fc             	mov    %eax,-0x4(%ebp)
  1032f4:	8b 45 0c             	mov    0xc(%ebp),%eax
  1032f7:	89 45 f8             	mov    %eax,-0x8(%ebp)
  1032fa:	eb 2a                	jmp    103326 <memcmp+0x3e>
  1032fc:	8b 45 fc             	mov    -0x4(%ebp),%eax
  1032ff:	8a 10                	mov    (%eax),%dl
  103301:	8b 45 f8             	mov    -0x8(%ebp),%eax
  103304:	8a 00                	mov    (%eax),%al
  103306:	38 c2                	cmp    %al,%dl
  103308:	74 16                	je     103320 <memcmp+0x38>
  10330a:	8b 45 fc             	mov    -0x4(%ebp),%eax
  10330d:	8a 00                	mov    (%eax),%al
  10330f:	0f b6 d0             	movzbl %al,%edx
  103312:	8b 45 f8             	mov    -0x8(%ebp),%eax
  103315:	8a 00                	mov    (%eax),%al
  103317:	0f b6 c0             	movzbl %al,%eax
  10331a:	29 c2                	sub    %eax,%edx
  10331c:	89 d0                	mov    %edx,%eax
  10331e:	eb 18                	jmp    103338 <memcmp+0x50>
  103320:	ff 45 fc             	incl   -0x4(%ebp)
  103323:	ff 45 f8             	incl   -0x8(%ebp)
  103326:	8b 45 10             	mov    0x10(%ebp),%eax
  103329:	8d 50 ff             	lea    -0x1(%eax),%edx
  10332c:	89 55 10             	mov    %edx,0x10(%ebp)
  10332f:	85 c0                	test   %eax,%eax
  103331:	75 c9                	jne    1032fc <memcmp+0x14>
  103333:	b8 00 00 00 00       	mov    $0x0,%eax
  103338:	c9                   	leave  
  103339:	c3                   	ret    
